MPASM  5.50                           PIC.ASM   7-27-2023  10:27:58         PAGE  1


LOC  OBJECT CODE     LINE SOURCE TEXT
  VALUE

                      00001 ; LCD Display Configuration
Warning[205]: Found directive in column 1. (PROCESSOR)
                      00002 PROCESSOR 16F877A
Warning[205]: Found directive in column 1. (INCLUDE)
                      00003 INCLUDE "P16F877A.INC"
                      00001         LIST
                      00002 
                      00003 ;==========================================================================
                      00004 ;  MPASM PIC16F877A processor include
                      00005 ; 
                      00006 ;  (c) Copyright 1999-2013 Microchip Technology, All rights reserved
                      00007 ;==========================================================================
                      00008 
                      00566         LIST
Warning[205]: Found directive in column 1. (__CONFIG)
2007   3731           00004 __CONFIG 0x3731
                      00005 
                      00006 ; Equates
  00000025            00007 SymbolCounter EQU 0x25
  00000026            00008 savedSymbol EQU 0x26
  00000027            00009 symbol EQU 0x27
  00000028            00010 Counter EQU 0x28                    ; Counter variable initialized to 0
  00000029            00011 Counter1 EQU 0x29                   ; Counter variable initialized to 0
  0000002A            00012 CounterTemp EQU 0x2A                   ; Counter variable initialized to 0
  0000002B            00013 tenThousandsFirst EQU 0x2B          ; Flag to indicate if two seconds have elapsed without RB0 interrupt
  0000002C            00014 ThousandsFirst EQU 0x2C          ; Flag to indicate if two seconds have elapsed without RB0 interrupt
  0000002D            00015 HundredsFirst EQU 0x2D
  0000002F            00016 TensFirst EQU 0x2F
  00000030            00017 OnesFirst EQU 0x30
  00000031            00018 tenThousandsFirstNum EQU 0x31       ; Variable to store the counter value when the flag is set
  00000032            00019 ThousandsFirstNum EQU 0x32       ; Variable to store the counter value when the flag is set
  00000033            00020 HundredsFirstNum EQU 0x33
  00000034            00021 TensFirstNum EQU 0x34
  00000035            00022 OnesFirstNum EQU 0x35
  00000036            00023 FirstNumL EQU 0x36
  00000037            00024 FirstNumH EQU 0x37
  00000038            00025 SecondNumL EQU 0x38
  00000039            00026 SecondNumH EQU 0x39
  0000003A            00027 Sum EQU 0x3A
  0000003B            00028 OnesSum EQU 0x3B                   ; Variable for the ones digit of the sum
  0000003C            00029 TensSum EQU 0x3C                   ; Variable for the tens digit of the sum
  0000003D            00030 HundredsSum EQU 0x3D               ; Variable for the hundreds digit of the sum
  0000003E            00031 ThousandsSum EQU 0x3E              ; Variable for the thousands digit of the sum
  0000003F            00032 tenThousandsSum EQU 0x3F           ; Variable for the ten thousands digit of the sum
  00000041            00033 SumTemp EQU 0x41
  00000042            00034 Quotient EQU 0x42
  00000043            00035 Quotient1 EQU 0x43
  00000044            00036 Carry EQU 0x44
  00000045            00037 OnesSumT EQU 0x45                   ; Variable for the ones digit of the sum
  00000046            00038 TensSumT EQU 0x46                   ; Variable for the tens digit of the sum
  00000047            00039 HundredsSumT EQU 0x47               ; Variable for the hundreds digit of the sum
  00000048            00040 ThousandsSumT EQU 0x48              ; Variable for the thousands digit of the sum
  00000049            00041 tenThousandsSumT EQU 0x49           ; Variable for the ten thousands digit of the sum
MPASM  5.50                           PIC.ASM   7-27-2023  10:27:58         PAGE  2


LOC  OBJECT CODE     LINE SOURCE TEXT
  VALUE

  0000004A            00042 counter1 EQU 0x4A
  0000004B            00043 counter2 EQU 0x4B
  0000004C            00044 counter3 EQU 0x4C
  0000004D            00045 tenThousandsSecondNum EQU 0x4D
  0000004E            00046 ThousandsSecondNum EQU 0x4E
  0000004F            00047 HundredsSecondNum EQU 0x4F
  00000050            00048 TensSecondNum EQU 0x50
  00000051            00049 OnesSecondNum EQU 0x51
  00000052            00050 TensSecond EQU 0x52
  00000053            00051 OnesSecond EQU 0x53
  00000054            00052 tenThousandsSecond EQU 0x54
  00000055            00053 ThousandsSecond EQU 0x55
  00000056            00054 HundredsSecond EQU 0x56
  00000057            00055 IDX16 EQU 0x57
  00000058            00056 IDX16_H EQU 0x58
  00000059            00057 TEMPYY EQU 0x59
  0000005A            00058 RemainderL EQU 0x5A
  0000005B            00059 RemainderH EQU 0x5B
  0000005C            00060 TenNum EQU 0x5C
  0000005D            00061 ZeroNum EQU 0x5D
  0000005E            00062 DivTenThousands EQU 0x5E
  0000005F            00063 DivThousands EQU 0x5F
  00000060            00064 DivHundreds EQU 0x60
  00000061            00065 DivTens EQU 0x61
  00000062            00066 DivOnes EQU 0x62
  00000063            00067 QuotientF EQU 0x63
  00000064            00068 QuotientF1 EQU 0x64
  00000065            00069 RemainderF EQU 0x65
  00000066            00070 RemainderF1 EQU 0x66
  00000067            00071 RemOnes EQU 0x67
  00000068            00072 RemTens EQU 0x68
  00000069            00073 RemHundreds EQU 0x69
  0000006A            00074 RemThousands EQU 0x6A
  0000006B            00075 RemTenThousands EQU 0x6B
  0000006C            00076 Counter2 EQU 0x6C
  0000006D            00077 SingleDoubleFlag EQU 0x6D
  0000006E            00078 YNCounter EQU 0x6E
                      00079 ; The instructions should start from here
Warning[205]: Found directive in column 1. (ORG)
                      00080 ORG 0x00
Warning[203]: Found opcode in column 1. (GOTO)
0000   2???           00081 GOTO init
Warning[205]: Found directive in column 1. (ORG)
                      00082 ORG 0x04
Warning[203]: Found opcode in column 1. (GOTO)
0004   2???           00083 GOTO ISR
                      00084 
                      00085 ; The initialization routine for our program
0005                  00086 init:
Warning[203]: Found opcode in column 1. (CLRF)
0005   01EE           00087 CLRF YNCounter
Warning[203]: Found opcode in column 1. (CLRF)
0006   01ED           00088 CLRF SingleDoubleFlag
MPASM  5.50                           PIC.ASM   7-27-2023  10:27:58         PAGE  3


LOC  OBJECT CODE     LINE SOURCE TEXT
  VALUE

Warning[203]: Found opcode in column 1. (CLRF)
0007   01EC           00089 CLRF Counter2
Warning[203]: Found opcode in column 1. (CLRF)
0008   01DE           00090 CLRF DivTenThousands 
Warning[203]: Found opcode in column 1. (CLRF)
0009   01DF           00091 CLRF DivThousands 
Warning[203]: Found opcode in column 1. (CLRF)
000A   01E0           00092 CLRF DivHundreds 
Warning[203]: Found opcode in column 1. (CLRF)
000B   01E1           00093 CLRF DivTens 
Warning[203]: Found opcode in column 1. (CLRF)
000C   01E2           00094 CLRF DivOnes
Warning[203]: Found opcode in column 1. (CLRF)
000D   01C2           00095 CLRF Quotient
Warning[203]: Found opcode in column 1. (CLRF)
000E   01C3           00096 CLRF Quotient1
Warning[203]: Found opcode in column 1. (CLRF)
000F   01E3           00097 CLRF QuotientF
Warning[203]: Found opcode in column 1. (CLRF)
0010   01E4           00098 CLRF QuotientF1
Warning[203]: Found opcode in column 1. (MOVLW)
0011   300A           00099 MOVLW 0x0A
Warning[203]: Found opcode in column 1. (MOVWF)
0012   00DC           00100 MOVWF TenNum
Warning[203]: Found opcode in column 1. (CLRF)
0013   01DD           00101 CLRF ZeroNum
Warning[203]: Found opcode in column 1. (CLRF)
0014   01DA           00102 CLRF RemainderL
Warning[203]: Found opcode in column 1. (CLRF)
0015   01DB           00103 CLRF RemainderH 
Warning[203]: Found opcode in column 1. (CLRF)
0016   01D7           00104 CLRF IDX16 
Warning[203]: Found opcode in column 1. (CLRF)
0017   01D8           00105 CLRF IDX16_H 
Warning[203]: Found opcode in column 1. (CLRF)
0018   01D9           00106 CLRF TEMPYY 
Warning[203]: Found opcode in column 1. (CLRF)
0019   01B6           00107 CLRF FirstNumL
Warning[203]: Found opcode in column 1. (CLRF)
001A   01B7           00108 CLRF FirstNumH
Warning[203]: Found opcode in column 1. (CLRF)
001B   01B8           00109 CLRF SecondNumL
Warning[203]: Found opcode in column 1. (CLRF)
001C   01B9           00110 CLRF SecondNumH
Warning[203]: Found opcode in column 1. (CLRF)
001D   01CA           00111 CLRF counter1
Warning[203]: Found opcode in column 1. (CLRF)
001E   01CB           00112 CLRF counter2
Warning[203]: Found opcode in column 1. (CLRF)
001F   01CC           00113 CLRF counter3
Warning[203]: Found opcode in column 1. (CLRF)
0020   01C4           00114 CLRF Carry
Warning[203]: Found opcode in column 1. (CLRF)
MPASM  5.50                           PIC.ASM   7-27-2023  10:27:58         PAGE  4


LOC  OBJECT CODE     LINE SOURCE TEXT
  VALUE

0021   01A7           00115 CLRF symbol
Warning[203]: Found opcode in column 1. (CLRF)
0022   01BA           00116 CLRF Sum
Warning[203]: Found opcode in column 1. (CLRF)
0023   01A6           00117 CLRF savedSymbol
Warning[203]: Found opcode in column 1. (CLRF)
0024   01A5           00118 CLRF SymbolCounter
Warning[202]: Argument out of range.  Least significant bits used.
0025   3000           00119     MOVLW 100                          ; Load the value 1 into the W register
0026   00A9           00120     MOVWF Counter1                   ; Move the value from W register to Counter1
Warning[203]: Found opcode in column 1. (MOVLW)
Warning[202]: Argument out of range.  Least significant bits used.
0027   3000           00121 MOVLW 200                        ; Load the value 1 into the W register
0028   00EC           00122     MOVWF Counter2
Warning[203]: Found opcode in column 1. (CLRF)
0029   01A8           00123 CLRF Counter
Warning[203]: Found opcode in column 1. (CLRF)
002A   01AC           00124 CLRF ThousandsFirst
Warning[203]: Found opcode in column 1. (CLRF)
002B   01B2           00125 CLRF ThousandsFirstNum
Warning[203]: Found opcode in column 1. (CLRF)
002C   01AB           00126 CLRF tenThousandsFirst
Warning[203]: Found opcode in column 1. (CLRF)
002D   01B1           00127 CLRF tenThousandsFirstNum
Warning[203]: Found opcode in column 1. (CLRF)
002E   01AD           00128 CLRF HundredsFirst
Warning[203]: Found opcode in column 1. (CLRF)
002F   01B3           00129 CLRF HundredsFirstNum
Warning[203]: Found opcode in column 1. (CLRF)
0030   01AF           00130 CLRF TensFirst
Warning[203]: Found opcode in column 1. (CLRF)
0031   01B4           00131 CLRF TensFirstNum
Warning[203]: Found opcode in column 1. (CLRF)
0032   01B0           00132 CLRF OnesFirst
Warning[203]: Found opcode in column 1. (CLRF)
0033   01B5           00133 CLRF OnesFirstNum
Warning[203]: Found opcode in column 1. (CLRF)
0034   01D4           00134 CLRF tenThousandsSecond
Warning[203]: Found opcode in column 1. (CLRF)
0035   01CD           00135 CLRF tenThousandsSecondNum
Warning[203]: Found opcode in column 1. (CLRF)
0036   01D5           00136 CLRF ThousandsSecond
Warning[203]: Found opcode in column 1. (CLRF)
0037   01CE           00137 CLRF ThousandsSecondNum
Warning[203]: Found opcode in column 1. (CLRF)
0038   01D6           00138 CLRF HundredsSecond
Warning[203]: Found opcode in column 1. (CLRF)
0039   01CF           00139 CLRF HundredsSecondNum
Warning[203]: Found opcode in column 1. (CLRF)
003A   01D2           00140 CLRF TensSecond
Warning[203]: Found opcode in column 1. (CLRF)
003B   01D0           00141 CLRF TensSecondNum
Warning[203]: Found opcode in column 1. (CLRF)
MPASM  5.50                           PIC.ASM   7-27-2023  10:27:58         PAGE  5


LOC  OBJECT CODE     LINE SOURCE TEXT
  VALUE

003C   01D3           00142 CLRF OnesSecond
Warning[203]: Found opcode in column 1. (CLRF)
003D   01D1           00143 CLRF OnesSecondNum
Warning[203]: Found opcode in column 1. (CLRF)
003E   01AA           00144 CLRF CounterTemp
Message[302]: Register in operand not in bank 0.  Ensure that bank bits are correct.
003F   1406           00145     BSF TRISB, TRISB0                                   
0040   2???           00146     CALL xms                      
0041   2???           00147     CALL xms
0042   2???           00148     CALL inid                      
0043   1274           00149     BCF Select, RS
0044   3080           00150     MOVLW 0x80
0045   2???           00151     CALL send
0046   1674           00152     BSF Select, RS
Warning[203]: Found opcode in column 1. (CALL)
0047   2???           00153 CALL PrintRes
                      00154     
0048   178B           00155     BSF INTCON, GIE                  ; Enable global interrupts
0049   160B           00156     BSF INTCON, INTE          
                      00157 
004A   2???           00158     GOTO start
                      00159 
004B                  00160 ISR:
004B   120B           00161     BCF INTCON, INTE                 ; Disable external interrupt
004C   108B           00162     BCF INTCON, INTF                 ; Clear interrupt flag
004D   1C2B           00163     BTFSS tenThousandsFirst, 0       ; Check if tenThousandsFirst is equal to 1
004E   2???           00164     GOTO not_equal                  ; Branch if not equal (skip next instruction)
                      00165     ; Code to execute if tenThousandsFirst is equal to 1
004F   2???           00166     GOTO equal_end                   ; Skip the code below
                      00167 
0050                  00168 not_equal:
                      00169     ; Code after the conditional branch
0050   1274           00170     BCF Select, RS
                      00171     ; Set cursor to the second line, first position (address 0x40)
0051   0828           00172     MOVF Counter, W                ; Move the value of Counter to W register
0052   00AA           00173     MOVWF CounterTemp              ; Move the value from W register to CounterTemp
0053   30C0           00174     MOVLW 0xC0
0054   2???           00175     CALL send                        ; Send command to set cursor position
0055   1674           00176     BSF Select, RS                   ; Set RS bit for data
0056   082A           00177     MOVF CounterTemp, W                  ; Load counter value into W register
0057   2???           00178     CALL numToASCII                  ; Convert the counter value to ASCII
0058   2???           00179     CALL send                        ; Send the ASCII character to the LCD display
0059   3006           00180     MOVLW 0x06
005A   062A           00181     XORWF CounterTemp, W                 ; Compare Counter value with 0x06
005B   1903           00182     BTFSC STATUS, Z                  ; Branch if not zero (counter != 6)
005C   2???           00183     GOTO reset_counter               ; Jump to reset_counter if counter == 6
005D   0AA8           00184     INCF Counter, F                  ; Increment the counter value
005E   2???           00185     GOTO end_isr
005F                  00186 equal_end:
005F   1C2C           00187     BTFSS ThousandsFirst, 0       ; Check if ThousandsFirst is equal to 1
0060   2???           00188     GOTO not_equal1                  ; Branch if not equal (skip next instruction)
                      00189     ; Code to execute if tenThousandsFirst is equal to 1
0061   2???           00190     GOTO equal_end1                   ; Skip the code below
MPASM  5.50                           PIC.ASM   7-27-2023  10:27:58         PAGE  6


LOC  OBJECT CODE     LINE SOURCE TEXT
  VALUE

                      00191     
                      00192     
                      00193     
0062                  00194 more_than_six:
0062   3005           00195     MOVLW 0x05
0063   062A           00196     XORWF CounterTemp, W                 ; Compare Counter value with 0x06
0064   1903           00197     BTFSC STATUS, Z                  ; Branch if not zero (counter != 6)
0065   2???           00198     GOTO reset_counter               ; Jump to reset_counter if counter == 6
0066   0AA8           00199     INCF Counter, F                  ; Increment the counter value
0067   2???           00200     GOTO end_isr
                      00201 
                      00202    
                      00203   
                      00204  
                      00205 
                      00206  
                      00207  
                      00208  
                      00209  
                      00210 
0068                  00211 not_equal1:
                      00212     ; Code after the conditional branch
0068   1274           00213     BCF Select, RS
                      00214     ; Set cursor to the second line, first position (address 0x40)
0069   0828           00215     MOVF Counter, W                ; Move the value of Counter to W register
006A   00AA           00216     MOVWF CounterTemp              ; Move the value from W register to CounterTemp
006B   1274           00217     BCF Select, RS
                      00218     ; Set cursor to the second line, first position (address 0x40)
006C   30C1           00219     MOVLW 0xC1
006D   2???           00220     CALL send                        ; Send command to set cursor position
006E   1674           00221     BSF Select, RS                   ; Set RS bit for data
006F   082A           00222     MOVF CounterTemp, W                  ; Load counter value into W register
0070   2???           00223     CALL numToASCII                  ; Convert the counter value to ASCII
0071   2???           00224     CALL send                        ; Send the ASCII character to the LCD display
0072   3006           00225     MOVLW 0x06
0073   0631           00226     XORWF tenThousandsFirstNum, W                 ; Compare Counter value with 0x06
0074   1903           00227     BTFSC STATUS, Z                  ; Branch if the result is greater than or equal to 7
0075   2???           00228     GOTO more_than_six               ; Branch if tenThousandsFirst is more than 6
0076   3009           00229     MOVLW 0x09
0077   0628           00230     XORWF Counter, W                 ; Compare Counter value with 0x06
0078   1903           00231     BTFSC STATUS, Z                  ; Branch if not zero (counter != 6)
0079   2???           00232     GOTO reset_counter               ; Jump to reset_counter if counter == 6
007A   0AA8           00233     INCF Counter, F                  ; Increment the counter value
007B   2???           00234     GOTO end_isr
                      00235 
007C                  00236 equal_end1:
007C   1C2D           00237     BTFSS HundredsFirst, 0       ; Check if hundreds is equal to 1
007D   2???           00238     GOTO not_equal2                  ; Branch if not equal (skip next instruction)
007E   2???           00239     GOTO equal_end2                   ; Skip the code below
                      00240     
                      00241     
                      00242     
007F                  00243 not_equal2:
MPASM  5.50                           PIC.ASM   7-27-2023  10:27:58         PAGE  7


LOC  OBJECT CODE     LINE SOURCE TEXT
  VALUE

007F   0828           00244     MOVF Counter, W                ; Move the value of Counter to W register
0080   00AA           00245     MOVWF CounterTemp              ; Move the value from W register to CounterTemp
0081   1274           00246     BCF Select, RS
0082   30C2           00247     MOVLW 0xC2
0083   2???           00248     CALL send                        ; Send command to set cursor position
0084   1674           00249     BSF Select, RS                   ; Set RS bit for data
0085   082A           00250     MOVF CounterTemp, W                  ; Load counter value into W register
0086   2???           00251     CALL numToASCII                  ; Convert the counter value to ASCII
0087   2???           00252     CALL send                        ; Send the ASCII character to the LCD display
0088   160B           00253     BSF INTCON, INTE                 ; Enable external interrupt
0089   3006           00254    MOVLW 0x06
008A   0631           00255    XORWF tenThousandsFirstNum, W                 ; Compare tenThousandsFirstNum with 0x06
008B   1D03           00256    BTFSS STATUS, Z                               ; Check if result is zero (tenThousandsFirstNum == 0x06
                            )
008C   2???           00257    GOTO NOT_EQUAL                                ; Jump to NOT_EQUAL if not equal
008D   3005           00258    MOVLW 0x05
008E   0632           00259    XORWF ThousandsFirstNum, W                    ; Compare ThousandsFirstNum with 0x01
008F   1D03           00260    BTFSS STATUS, Z                               ; Check if result is zero (ThousandsFirstNum == 0x01)
0090   2???           00261    GOTO NOT_EQUAL                                ; Jump to NOT_EQUAL if not equal
                      00262  
                      00263  
0091   3005           00264     MOVLW 0x05
0092   062A           00265     XORWF CounterTemp, W                 ; Compare Counter value with 0x06
0093   1903           00266     BTFSC STATUS, Z                  ; Branch if not zero (counter != 6)
0094   2???           00267     GOTO reset_counter               ; Jump to reset_counter if counter == 6
0095   0AA8           00268     INCF Counter, F                  ; Increment the counter value
0096   2???           00269     GOTO end_isr
0097                  00270 NOT_EQUAL
                      00271 
0097   3009           00272     MOVLW 0x09
0098   0628           00273     XORWF Counter, W                 ; Compare Counter value with 0x06
0099   1903           00274     BTFSC STATUS, Z                  ; Branch if not zero (counter != 6)
009A   2???           00275     GOTO reset_counter               ; Jump to reset_counter if counter == 6
009B   0AA8           00276     INCF Counter, F                  ; Increment the counter value
009C   2???           00277     GOTO end_isr
                      00278 
                      00279  ;;;;;;;;;;;;;;;;
                      00280  
                      00281  
                      00282  
Warning[207]: Found label after column 1. (equal_end2)
009D                  00283  equal_end2:
009D   1C2F           00284     BTFSS TensFirst, 0       ; Check if hundreds is equal to 1
009E   2???           00285     GOTO not_equal3                  ; Branch if not equal (skip next instruction)
                      00286     ; Code to execute if hundreds is equal to 1
009F   2???           00287     GOTO equal_end3                   ; Skip the code below
                      00288  
                      00289  
Warning[207]: Found label after column 1. (not_equal3)
00A0                  00290  not_equal3:
00A0   0828           00291     MOVF Counter, W                ; Move the value of Counter to W register
00A1   00AA           00292     MOVWF CounterTemp              ; Move the value from W register to CounterTemp
00A2   1274           00293     BCF Select, RS
MPASM  5.50                           PIC.ASM   7-27-2023  10:27:58         PAGE  8


LOC  OBJECT CODE     LINE SOURCE TEXT
  VALUE

                      00294     ; Set cursor to the second line, first position (address 0x40)
00A3   30C3           00295     MOVLW 0xC3
00A4   2???           00296     CALL send                        ; Send command to set cursor position
00A5   1674           00297     BSF Select, RS                   ; Set RS bit for data
00A6   082A           00298     MOVF CounterTemp, W                  ; Load counter value into W register
00A7   2???           00299     CALL numToASCII                  ; Convert the counter value to ASCII
00A8   2???           00300     CALL send                        ; Send the ASCII character to the LCD display
                      00301 
00A9   3006           00302    MOVLW 0x06
00AA   0631           00303    XORWF tenThousandsFirstNum, W                 ; Compare tenThousandsFirstNum with 0x06
00AB   1D03           00304    BTFSS STATUS, Z                               ; Check if result is zero (tenThousandsFirstNum == 0x06
                            )
00AC   2???           00305    GOTO NOT_EQUAL1                                ; Jump to NOT_EQUAL if not equal
                      00306 
00AD   3005           00307    MOVLW 0x05
00AE   0632           00308    XORWF ThousandsFirstNum, W                    ; Compare ThousandsFirstNum with 0x01
00AF   1D03           00309    BTFSS STATUS, Z                               ; Check if result is zero (ThousandsFirstNum == 0x01)
00B0   2???           00310    GOTO NOT_EQUAL1                               ; Jump to NOT_EQUAL if not equal
                      00311  
00B1   3005           00312    MOVLW 0x05
00B2   0632           00313    XORWF ThousandsFirstNum, W                    ; Compare ThousandsFirstNum with 0x01
00B3   1D03           00314    BTFSS STATUS, Z                               ; Check if result is zero (ThousandsFirstNum == 0x01)
00B4   2???           00315    GOTO NOT_EQUAL1                               ; Jump to NOT_EQUAL if not equal
                      00316  
00B5   3003           00317     MOVLW 0x03
00B6   062A           00318     XORWF CounterTemp, W                 ; Compare Counter value with 0x06
00B7   1903           00319     BTFSC STATUS, Z                  ; Branch if not zero (counter != 6)
00B8   2???           00320     GOTO reset_counter               ; Jump to reset_counter if counter == 6
00B9   0AA8           00321     INCF Counter, F                  ; Increment the counter value
00BA   2???           00322     GOTO end_isr
                      00323     
Warning[207]: Found label after column 1. (NOT_EQUAL1)
00BB                  00324     NOT_EQUAL1
00BB   3009           00325     MOVLW 0x09
00BC   0628           00326     XORWF Counter, W                 ; Compare Counter value with 0x06
00BD   1903           00327     BTFSC STATUS, Z                  ; Branch if not zero (counter != 6)
00BE   2???           00328     GOTO reset_counter               ; Jump to reset_counter if counter == 6
00BF   0AA8           00329     INCF Counter, F                  ; Increment the counter value
00C0   2???           00330     GOTO end_isr
                      00331     
Warning[207]: Found label after column 1. (equal_end3)
00C1                  00332  equal_end3:
00C1   1C30           00333     BTFSS OnesFirst, 0       ; Check if hundreds is equal to 1
00C2   2???           00334     GOTO not_equal4                  ; Branch if not equal (skip next instruction)
                      00335     ; Code to execute if hundreds is equal to 1
00C3   2???           00336     GOTO equal_end4                   ; Skip the code below
                      00337 
                      00338 
                      00339 
                      00340 
                      00341 
Warning[207]: Found label after column 1. (not_equal4)
00C4                  00342  not_equal4:
MPASM  5.50                           PIC.ASM   7-27-2023  10:27:58         PAGE  9


LOC  OBJECT CODE     LINE SOURCE TEXT
  VALUE

00C4   0828           00343     MOVF Counter, W                ; Move the value of Counter to W register
00C5   00AA           00344     MOVWF CounterTemp              ; Move the value from W register to CounterTemp
00C6   1274           00345     BCF Select, RS
                      00346     ; Set cursor to the second line, first position (address 0x40)
00C7   30C4           00347     MOVLW 0xC4
00C8   2???           00348     CALL send                        ; Send command to set cursor position
00C9   1674           00349     BSF Select, RS                   ; Set RS bit for data
00CA   082A           00350     MOVF CounterTemp, W                  ; Load counter value into W register
00CB   2???           00351     CALL numToASCII                  ; Convert the counter value to ASCII
00CC   2???           00352     CALL send                        ; Send the ASCII character to the LCD display
00CD   3006           00353    MOVLW 0x06
00CE   0631           00354    XORWF tenThousandsFirstNum, W                 ; Compare tenThousandsFirstNum with 0x06
00CF   1D03           00355    BTFSS STATUS, Z                               ; Check if result is zero (tenThousandsFirstNum == 0x06
                            )
00D0   2???           00356    GOTO NOT_EQUAL2                                ; Jump to NOT_EQUAL if not equal
                      00357 
00D1   3005           00358    MOVLW 0x05
00D2   0632           00359    XORWF ThousandsFirstNum, W                    ; Compare ThousandsFirstNum with 0x01
00D3   1D03           00360    BTFSS STATUS, Z                               ; Check if result is zero (ThousandsFirstNum == 0x01)
00D4   2???           00361    GOTO NOT_EQUAL2                               ; Jump to NOT_EQUAL if not equal
                      00362  
00D5   3005           00363    MOVLW 0x05
00D6   0633           00364    XORWF HundredsFirstNum, W                    ; Compare ThousandsFirstNum with 0x01
00D7   1D03           00365    BTFSS STATUS, Z                               ; Check if result is zero (ThousandsFirstNum == 0x01)
00D8   2???           00366    GOTO NOT_EQUAL2                               ; Jump to NOT_EQUAL if not equal
00D9   3003           00367    MOVLW 0x03
00DA   0634           00368    XORWF TensFirstNum, W                    ; Compare ThousandsFirstNum with 0x01
00DB   1D03           00369    BTFSS STATUS, Z                               ; Check if result is zero (ThousandsFirstNum == 0x01)
00DC   2???           00370    GOTO NOT_EQUAL2  
00DD   3005           00371     MOVLW 0x05
00DE   062A           00372     XORWF CounterTemp, W                 ; Compare Counter value with 0x06
00DF   1D03           00373     BTFSS STATUS, Z                  ; Branch if not zero (counter != 6)
00E0   2???           00374     GOTO NOT_EQUAL2                               ; Jump to NOT_EQUAL if not equal
00E1   2???           00375     GOTO reset_counter               ; Jump to reset_counter if counter == 6
00E2   0AA8           00376     INCF Counter, F                  ; Increment the counter value
00E3   2???           00377     GOTO end_isr
Warning[207]: Found label after column 1. (NOT_EQUAL2)
00E4                  00378     NOT_EQUAL2
00E4   3009           00379     MOVLW 0x09
00E5   0628           00380     XORWF Counter, W                 ; Compare Counter value with 0x06
00E6   1903           00381     BTFSC STATUS, Z                  ; Branch if not zero (counter != 6)
00E7   2???           00382     GOTO reset_counter               ; Jump to reset_counter if counter == 6
00E8   0AA8           00383     INCF Counter, F                  ; Increment the counter value
00E9   2???           00384     GOTO end_isr
                      00385     
                      00386 
00EA                  00387 equal_end4: 
00EA   1C27           00388     BTFSS symbol, 0       ; Check if hundreds is equal to 1
00EB   2???           00389     GOTO not_equal5                  ; Branch if not equal (skip next instruction)
                      00390     ; Code to execute if hundreds is equal to 1
00EC   2???           00391     GOTO equal_end5                   ; Skip the code below
                      00392 
                      00393 
MPASM  5.50                           PIC.ASM   7-27-2023  10:27:58         PAGE 10


LOC  OBJECT CODE     LINE SOURCE TEXT
  VALUE

00ED                  00394 not_equal5:
Warning[203]: Found opcode in column 1. (MOVLW)
00ED   3000           00395 MOVLW 0x00
Warning[203]: Found opcode in column 1. (XORWF)
00EE   0625           00396 XORWF SymbolCounter, W        
Warning[203]: Found opcode in column 1. (BTFSS)
00EF   1D03           00397 BTFSS STATUS, Z                
Warning[203]: Found opcode in column 1. (GOTO)
00F0   2???           00398 GOTO counter_not_zero
Warning[203]: Found opcode in column 1. (BCF)
00F1   1274           00399 BCF Select, RS
Warning[203]: Found opcode in column 1. (MOVLW)
00F2   30C5           00400 MOVLW 0xC5
Warning[203]: Found opcode in column 1. (CALL)
00F3   2???           00401 CALL send                      ; Send command to set cursor position
Warning[203]: Found opcode in column 1. (BSF)
00F4   1674           00402 BSF Select, RS                 ; Set RS bit for data
Warning[203]: Found opcode in column 1. (MOVLW)
00F5   302B           00403 MOVLW '+'
Warning[203]: Found opcode in column 1. (CALL)
00F6   2???           00404 CALL send   
Warning[203]: Found opcode in column 1. (MOVLW)
00F7   302B           00405 MOVLW '+'
Warning[203]: Found opcode in column 1. (MOVWF)
00F8   00A6           00406 MOVWF savedSymbol 
Warning[203]: Found opcode in column 1. (INCF)
00F9   0AA5           00407 INCF SymbolCounter, F          ; Increment the counter value
                      00408 
Warning[203]: Found opcode in column 1. (GOTO)
00FA   2???           00409 GOTO end_isr
                      00410  
                      00411 
00FB                  00412 counter_not_zero:
00FB   3001           00413  MOVLW 0x01
00FC   0625           00414     XORWF SymbolCounter, W                 ; Compare Counter value with 0x06
00FD   1D03           00415     BTFSS STATUS, Z                  ; Branch if not zero (counter != 6)
00FE   2???           00416     GOTO counter_is_two          ; Jump to counter_is_two if counter is 2                      ; Send co
                            mmand to set cursor position
00FF   1274           00417         BCF Select, RS
                      00418     ; Set cursor to the second line, first position (address 0x40)
0100   30C5           00419     MOVLW 0xC5
0101   2???           00420     CALL send                        ; Send command to set cursor position
0102   1674           00421     BSF Select, RS                   ; Set RS bit for data  
0103   302F           00422     MOVLW '/'
0104   2???           00423     CALL send   
0105   302F           00424    MOVLW '/'
0106   00A6           00425    MOVWF savedSymbol   
0107   0AA5           00426    INCF SymbolCounter, F                  ; Increment the counter value 
0108   2???           00427     GOTO end_isr
                      00428     
                      00429     
0109                  00430 counter_is_two:
0109   1274           00431     BCF Select, RS
MPASM  5.50                           PIC.ASM   7-27-2023  10:27:58         PAGE 11


LOC  OBJECT CODE     LINE SOURCE TEXT
  VALUE

                      00432     ; Set cursor to the second line, first position (address 0x40)
010A   30C5           00433     MOVLW 0xC5
010B   2???           00434     CALL send                        ; Send command to set cursor position
010C   1674           00435     BSF Select, RS                   ; Set RS bit for data 
010D   3025           00436         MOVLW '%'
010E   2???           00437     CALL send    
010F   3025           00438     MOVLW '%'
0110   00A6           00439     MOVWF savedSymbol
0111   01A5           00440     CLRF SymbolCounter
0112   2???           00441     GOTO end_isr
                      00442 
                      00443 ;;;;;;;;;;Second Number;;;;;;;;;;;;;;;    
                      00444 ;;;;;;;;;;;;tenthousands;;;;;;;;;;;;;;
                      00445 
                      00446 
                      00447 
0113                  00448 equal_end5:
0113   1C54           00449     BTFSS tenThousandsSecond, 0       ; Check if tenThousandsFirst is equal to 1
0114   2???           00450     GOTO not_equal6                  ; Branch if not equal (skip next instruction)
                      00451     ; Code to execute if tenThousandsFirst is equal to 1
0115   2???           00452     GOTO equal_end6                   ; Skip the code below
                      00453 
0116                  00454 not_equal6:
                      00455     ; Code after the conditional branch
0116   1274           00456     BCF Select, RS
                      00457     ; Set cursor to the second line, first position (address 0x40)
0117   0828           00458     MOVF Counter, W                ; Move the value of Counter to W register
0118   00AA           00459     MOVWF CounterTemp              ; Move the value from W register to CounterTemp
0119   30C6           00460     MOVLW 0xC6
011A   2???           00461     CALL send                        ; Send command to set cursor position
011B   1674           00462     BSF Select, RS                   ; Set RS bit for data
011C   082A           00463     MOVF CounterTemp, W                  ; Load counter value into W register
011D   2???           00464         CALL numToASCII                  ; Convert the counter value to ASCII
011E   2???           00465     CALL send                        ; Send the ASCII character to the LCD display
011F   3006           00466     MOVLW 0x06
0120   062A           00467     XORWF CounterTemp, W                 ; Compare Counter value with 0x06
0121   1903           00468     BTFSC STATUS, Z                  ; Branch if not zero (counter != 6)
0122   2???           00469     GOTO reset_counter               ; Jump to reset_counter if counter == 6
0123   0AA8           00470     INCF Counter, F                  ; Increment the counter value
0124   2???           00471     GOTO end_isr
                      00472 
Warning[207]: Found label after column 1. (equal_end6)
0125                  00473     equal_end6:
0125   1C55           00474     BTFSS ThousandsSecond, 0       ; Check if ThousandsFirst is equal to 1
0126   2???           00475     GOTO not_equal7                  ; Branch if not equal (skip next instruction)
                      00476     ; Code to execute if tenThousandsFirst is equal to 1
0127   2???           00477     GOTO equal_end7                   ; Skip the code below
                      00478  
Warning[207]: Found label after column 1. (not_equal7)
0128                  00479  not_equal7:
                      00480      ; Code after the conditional branch
0128   1274           00481     BCF Select, RS
                      00482     ; Set cursor to the second line, first position (address 0x40)
MPASM  5.50                           PIC.ASM   7-27-2023  10:27:58         PAGE 12


LOC  OBJECT CODE     LINE SOURCE TEXT
  VALUE

0129   0828           00483     MOVF Counter, W                ; Move the value of Counter to W register
012A   00AA           00484     MOVWF CounterTemp              ; Move the value from W register to CounterTemp
012B   1274           00485     BCF Select, RS
                      00486     ; Set cursor to the second line, first position (address 0x40)
012C   30C7           00487     MOVLW 0xC7
012D   2???           00488     CALL send                        ; Send command to set cursor position
012E   1674           00489     BSF Select, RS                   ; Set RS bit for data
012F   082A           00490     MOVF CounterTemp, W                  ; Load counter value into W register
0130   2???           00491     CALL numToASCII                  ; Convert the counter value to ASCII
0131   2???           00492     CALL send                        ; Send the ASCII character to the LCD display
0132   3006           00493     MOVLW 0x06
0133   064D           00494     XORWF tenThousandsSecondNum, W                 ; Compare Counter value with 0x06
0134   1903           00495     BTFSC STATUS, Z                  ; Branch if the result is greater than or equal to 7
0135   2???           00496     GOTO more_than_six1               ; Branch if tenThousandsFirst is more than 6
0136   3009           00497     MOVLW 0x09
0137   0628           00498     XORWF Counter, W                 ; Compare Counter value with 0x06
0138   1903           00499     BTFSC STATUS, Z                  ; Branch if not zero (counter != 6)
0139   2???           00500     GOTO reset_counter               ; Jump to reset_counter if counter == 6
013A   0AA8           00501     INCF Counter, F                  ; Increment the counter value
013B   2???           00502     GOTO end_isr
                      00503     
                      00504     
013C                  00505 more_than_six1:
                      00506     ; Code to execute if tenThousandsFirst is more than 6
013C   3005           00507     MOVLW 0x05
013D   062A           00508     XORWF CounterTemp, W                 ; Compare Counter value with 0x06
013E   1903           00509     BTFSC STATUS, Z                  ; Branch if not zero (counter != 6)
013F   2???           00510     GOTO reset_counter               ; Jump to reset_counter if counter == 6
0140   0AA8           00511     INCF Counter, F                  ; Increment the counter value
0141   2???           00512     GOTO end_isr    
                      00513     
                      00514     
0142                  00515 equal_end7:
0142   1C56           00516     BTFSS HundredsSecond, 0       ; Check if ThousandsFirst is equal to 1
0143   2???           00517     GOTO not_equal8                  ; Branch if not equal (skip next instruction)
                      00518     ; Code to execute if tenThousandsFirst is equal to 1
0144   2???           00519     GOTO equal_end8      
                      00520 
                      00521     
0145                  00522 not_equal8:
0145   0828           00523     MOVF Counter, W                ; Move the value of Counter to W register
0146   00AA           00524     MOVWF CounterTemp              ; Move the value from W register to CounterTemp
0147   1274           00525     BCF Select, RS
                      00526     ; Set cursor to the second line, first position (address 0x40)
0148   30C8           00527     MOVLW 0xC8
0149   2???           00528     CALL send                        ; Send command to set cursor position
014A   1674           00529     BSF Select, RS                   ; Set RS bit for data
014B   082A           00530     MOVF CounterTemp, W                  ; Load counter value into W register
014C   2???           00531     CALL numToASCII                  ; Convert the counter value to ASCII
014D   2???           00532     CALL send                        ; Send the ASCII character to the LCD display
014E   3006           00533    MOVLW 0x06
014F   064D           00534    XORWF tenThousandsSecondNum, W                 ; Compare tenThousandsFirstNum with 0x06
0150   1D03           00535    BTFSS STATUS, Z                               ; Check if result is zero (tenThousandsFirstNum == 0x06
MPASM  5.50                           PIC.ASM   7-27-2023  10:27:58         PAGE 13


LOC  OBJECT CODE     LINE SOURCE TEXT
  VALUE

                            )
0151   2???           00536    GOTO NOT_EQUAL3                                ; Jump to NOT_EQUAL if not equal
                      00537 
0152   3005           00538    MOVLW 0x05
0153   064E           00539    XORWF ThousandsSecondNum, W                    ; Compare ThousandsFirstNum with 0x01
0154   1D03           00540    BTFSS STATUS, Z                               ; Check if result is zero (ThousandsFirstNum == 0x01)
0155   2???           00541    GOTO NOT_EQUAL3                                ; Jump to NOT_EQUAL if not equal
                      00542  
                      00543  
0156   3005           00544     MOVLW 0x05
0157   062A           00545     XORWF CounterTemp, W                 ; Compare Counter value with 0x06
0158   1903           00546     BTFSC STATUS, Z                  ; Branch if not zero (counter != 6)
0159   2???           00547     GOTO reset_counter               ; Jump to reset_counter if counter == 6
015A   0AA8           00548     INCF Counter, F                  ; Increment the counter value
015B   2???           00549     GOTO end_isr
015C                  00550 NOT_EQUAL3
                      00551 
015C   3009           00552     MOVLW 0x09
015D   0628           00553     XORWF Counter, W                 ; Compare Counter value with 0x06
015E   1903           00554     BTFSC STATUS, Z                  ; Branch if not zero (counter != 6)
015F   2???           00555     GOTO reset_counter               ; Jump to reset_counter if counter == 6
0160   0AA8           00556     INCF Counter, F                  ; Increment the counter value
0161   2???           00557     GOTO end_isr
                      00558     
Warning[207]: Found label after column 1. (equal_end8)
0162                  00559  equal_end8:
0162   1C52           00560     BTFSS TensSecond, 0       ; Check if ThousandsFirst is equal to 1
0163   2???           00561     GOTO not_equal9                  ; Branch if not equal (skip next instruction)
                      00562     ; Code to execute if tenThousandsFirst is equal to 1
0164   2???           00563     GOTO equal_end9 
                      00564  
                      00565  
                      00566  
                      00567  
                      00568  
                      00569  
Warning[207]: Found label after column 1. (not_equal9)
0165                  00570  not_equal9:
0165   0828           00571     MOVF Counter, W                ; Move the value of Counter to W register
0166   00AA           00572     MOVWF CounterTemp              ; Move the value from W register to CounterTemp
0167   1274           00573     BCF Select, RS
                      00574     ; Set cursor to the second line, first position (address 0x40)
0168   30C9           00575     MOVLW 0xC9
0169   2???           00576     CALL send                        ; Send command to set cursor position
016A   1674           00577     BSF Select, RS                   ; Set RS bit for data
016B   082A           00578     MOVF CounterTemp, W                  ; Load counter value into W register
016C   2???           00579     CALL numToASCII                  ; Convert the counter value to ASCII
016D   2???           00580     CALL send                        ; Send the ASCII character to the LCD display
016E   3006           00581    MOVLW 0x06
016F   064D           00582    XORWF tenThousandsSecondNum, W                 ; Compare tenThousandsFirstNum with 0x06
0170   1D03           00583    BTFSS STATUS, Z                               ; Check if result is zero (tenThousandsFirstNum == 0x06
                            )
0171   2???           00584    GOTO NOT_EQUAL4                                ; Jump to NOT_EQUAL if not equal
MPASM  5.50                           PIC.ASM   7-27-2023  10:27:58         PAGE 14


LOC  OBJECT CODE     LINE SOURCE TEXT
  VALUE

                      00585 
0172   3005           00586    MOVLW 0x05
0173   064E           00587    XORWF ThousandsSecondNum, W                    ; Compare ThousandsFirstNum with 0x01
0174   1D03           00588    BTFSS STATUS, Z                               ; Check if result is zero (ThousandsFirstNum == 0x01)
0175   2???           00589    GOTO NOT_EQUAL4                               ; Jump to NOT_EQUAL if not equal
                      00590  
0176   3005           00591    MOVLW 0x05
0177   064F           00592    XORWF HundredsSecondNum, W                    ; Compare ThousandsFirstNum with 0x01
0178   1D03           00593    BTFSS STATUS, Z                               ; Check if result is zero (ThousandsFirstNum == 0x01)
0179   2???           00594    GOTO NOT_EQUAL4                               ; Jump to NOT_EQUAL if not equal
                      00595  
017A   3003           00596     MOVLW 0x03
017B   062A           00597     XORWF CounterTemp, W                 ; Compare Counter value with 0x06
017C   1903           00598     BTFSC STATUS, Z                  ; Branch if not zero (counter != 6)
017D   2???           00599     GOTO reset_counter               ; Jump to reset_counter if counter == 6
017E   0AA8           00600     INCF Counter, F                  ; Increment the counter value
017F   2???           00601     GOTO end_isr
                      00602     
Warning[207]: Found label after column 1. (NOT_EQUAL4)
0180                  00603     NOT_EQUAL4
0180   3009           00604     MOVLW 0x09
0181   0628           00605     XORWF Counter, W                 ; Compare Counter value with 0x06
0182   1903           00606     BTFSC STATUS, Z                  ; Branch if not zero (counter != 6)
0183   2???           00607     GOTO reset_counter               ; Jump to reset_counter if counter == 6
0184   0AA8           00608     INCF Counter, F                  ; Increment the counter value
0185   2???           00609     GOTO end_isr
                      00610  
0186                  00611 equal_end9: 
0186   1C53           00612     BTFSS OnesSecond, 0       ; Check if ThousandsFirst is equal to 1
0187   2???           00613     GOTO not_equal10                  ; Branch if not equal (skip next instruction)
                      00614     ; Code to execute if tenThousandsFirst is equal to 1
0188   2???           00615     GOTO equal_end10 
                      00616  
                      00617 
                      00618  
Warning[207]: Found label after column 1. (not_equal10)
0189                  00619  not_equal10: 
0189   0828           00620     MOVF Counter, W                ; Move the value of Counter to W register
018A   00AA           00621     MOVWF CounterTemp              ; Move the value from W register to CounterTemp
018B   1274           00622     BCF Select, RS
                      00623     ; Set cursor to the second line, first position (address 0x40)
                      00624 
018C   30CA           00625     MOVLW 0xCA
018D   2???           00626     CALL send                        ; Send command to set cursor position
018E   1674           00627     BSF Select, RS                   ; Set RS bit for data
018F   082A           00628     MOVF CounterTemp, W                  ; Load counter value into W register
0190   2???           00629     CALL numToASCII                  ; Convert the counter value to ASCII
0191   2???           00630     CALL send                        ; Send the ASCII character to the LCD display
0192   3006           00631    MOVLW 0x06
0193   064D           00632    XORWF tenThousandsSecondNum, W                 ; Compare tenThousandsFirstNum with 0x06
0194   1D03           00633    BTFSS STATUS, Z                               ; Check if result is zero (tenThousandsFirstNum == 0x06
                            )
0195   2???           00634    GOTO NOT_EQUAL5                                ; Jump to NOT_EQUAL if not equal
MPASM  5.50                           PIC.ASM   7-27-2023  10:27:58         PAGE 15


LOC  OBJECT CODE     LINE SOURCE TEXT
  VALUE

                      00635 
0196   3005           00636    MOVLW 0x05
0197   064E           00637    XORWF ThousandsSecondNum, W                    ; Compare ThousandsFirstNum with 0x01
0198   1D03           00638    BTFSS STATUS, Z                               ; Check if result is zero (ThousandsFirstNum == 0x01)
0199   2???           00639    GOTO NOT_EQUAL5                               ; Jump to NOT_EQUAL if not equal
019A   3005           00640    MOVLW 0x05
019B   064F           00641    XORWF HundredsSecondNum, W                    ; Compare ThousandsFirstNum with 0x01
019C   1D03           00642    BTFSS STATUS, Z                               ; Check if result is zero (ThousandsFirstNum == 0x01)
019D   2???           00643    GOTO NOT_EQUAL5                               ; Jump to NOT_EQUAL if not equal
019E   3003           00644    MOVLW 0x03
019F   0650           00645    XORWF TensSecondNum, W                    ; Compare ThousandsFirstNum with 0x01
01A0   1D03           00646    BTFSS STATUS, Z                               ; Check if result is zero (ThousandsFirstNum == 0x01)
01A1   2???           00647    GOTO NOT_EQUAL5  
01A2   3005           00648     MOVLW 0x05
01A3   062A           00649     XORWF CounterTemp, W                 ; Compare Counter value with 0x06
01A4   1D03           00650     BTFSS STATUS, Z                  ; Branch if not zero (counter != 6)
01A5   2???           00651     GOTO NOT_EQUAL2                               ; Jump to NOT_EQUAL if not equal
01A6   2???           00652     GOTO reset_counter               ; Jump to reset_counter if counter == 6
01A7   0AA8           00653     INCF Counter, F                  ; Increment the counter value
01A8   2???           00654     GOTO end_isr
Warning[207]: Found label after column 1. (NOT_EQUAL5)
01A9                  00655     NOT_EQUAL5
01A9   3009           00656     MOVLW 0x09
01AA   0628           00657     XORWF Counter, W                 ; Compare Counter value with 0x06
01AB   1903           00658     BTFSC STATUS, Z                  ; Branch if not zero (counter != 6)
01AC   2???           00659     GOTO reset_counter               ; Jump to reset_counter if counter == 6
01AD   0AA8           00660     INCF Counter, F                  ; Increment the counter value
01AE   2???           00661     GOTO end_isr
                      00662  
01AF                  00663 equal_end10:
01AF   3000           00664     MOVLW 0
01B0   066D           00665     XORWF SingleDoubleFlag,W
01B1   1903           00666     BTFSC STATUS,Z
01B2   2???           00667     GOTO SingleDoubleCounter
01B3   2???           00668     GOTO checkYN
                      00669 
Warning[207]: Found label after column 1. (checkYN)
01B4                  00670  checkYN:
01B4   3001           00671  MOVLW 1
01B5   066E           00672  XORWF YNCounter ,W
01B6   1903           00673  BTFSC STATUS,Z
01B7   2???           00674  GOTO not_equal5
01B8   2???           00675  GOTO end_isr
                      00676  
                      00677  
01B9                  00678 reset_counter:
01B9   01A8           00679     CLRF Counter                     ; Reset the counter value to zero
01BA   2???           00680     GOTO end_isr
                      00681         
01BB                  00682 SingleDoubleCounter:
Warning[203]: Found opcode in column 1. (MOVLW)
01BB   3002           00683 MOVLW 2
Warning[203]: Found opcode in column 1. (XORWF)
MPASM  5.50                           PIC.ASM   7-27-2023  10:27:58         PAGE 16


LOC  OBJECT CODE     LINE SOURCE TEXT
  VALUE

01BC   066E           00684 XORWF YNCounter,W
Warning[203]: Found opcode in column 1. (BTFSS)
01BD   1D03           00685 BTFSS STATUS,Z
01BE   0AEE           00686     INCF YNCounter, F
01BF   2???           00687     GOTO end_isr
                      00688     
                      00689     
01C0                  00690 end_isr:
                      00691     ; Clear Timer1 interrupt flag
01C0   100C           00692     BCF PIR1, TMR1IF
                      00693 
                      00694     ; Reset Timer1 registers for next iteration
01C1   30E1           00695     MOVLW 0xE1                       ; Set the high byte of the initial value (0x0BB8)
01C2   008F           00696     MOVWF TMR1H
01C3   30F4           00697     MOVLW 0xF4                       ; Set the low byte of the initial value (0x0BB8)
01C4   008E           00698     MOVWF TMR1L
                      00699 
Message[302]: Register in operand not in bank 0.  Ensure that bank bits are correct.
01C5   140C           00700     BSF PIE1, TMR1IE                 ; Enable Timer1 interrupt
01C6   160B           00701     BSF INTCON, INTE                 ; Enable external interrupt
                      00702     ; Reset Counter1 for next iteration
Warning[203]: Found opcode in column 1. (CALL)
01C7   2???           00703 CALL CountersInit
01C8   0009           00704     retfie
                      00705 
                      00706 
Warning[205]: Found directive in column 1. (INCLUDE)
                      00707 INCLUDE "LCDIS_PORTA.INC"            ; Include the LCD display library
                      00001 ;--------------------------------------------------------------
                      00002 ;       LCDIS.INC               MPB     19-12-05
                      00003 ;
                      00004 ;       Include file to operate 16x2 LCD display
                      00005 ;       Uses GPR 70 - 75
                      00006 ;       
                      00007 ;       Final version
                      00008 ;--------------------------------------------------------------
                      00009 
  00000070            00010 Timer1  EQU     70              ; 1ms count register
  00000071            00011 TimerX  EQU     71              ; Xms count register
  00000072            00012 Var     EQU     72              ; Output variable
  00000073            00013 Point   EQU     73              ; Program table pointer
  00000074            00014 Select  EQU     74              ; Used to set or clear RS bit
  00000075            00015 OutCod  EQU     75              ; Temp store for output code
                      00016 
                      00017 
  00000005            00018 E       EQU     5               ; Enable display input
  00000004            00019 RS      EQU     4               ; Register select output bit
                      00020 
                      00021 ;--------------------------------------------------------------
                      00022 ;       1ms delay with 1us cycle time (1000 cycles)
                      00023 ;--------------------------------------------------------------
01C9   30F9           00024 onems   MOVLW   D'249'          ; Count for 1ms delay 
01CA   00F0           00025         MOVWF   Timer1          ; Load count
MPASM  5.50                           PIC.ASM   7-27-2023  10:27:58         PAGE 17


LOC  OBJECT CODE     LINE SOURCE TEXT
  VALUE

01CB   0000           00026 loop1   NOP                     ; Pad for 4 cycle loop
Message[305]: Using default destination of 1 (file).
01CC   0BF0           00027         DECFSZ  Timer1          ; Count
01CD   2???           00028         GOTO    loop1           ; until Z
01CE   0008           00029         RETURN                  ; and finish
                      00030 
                      00031 ;--------------------------------------------------------------
                      00032 ;       Delay Xms
                      00033 ;       Receives count in W, uses Onems
                      00034 ;--------------------------------------------------------------
01CF   00F1           00035 xms     MOVWF   TimerX          ; Count for X ms
01D0   2???           00036 loopX   CALL    onems           ; Delay 1ms
Message[305]: Using default destination of 1 (file).
01D1   0BF1           00037         DECFSZ  TimerX          ; Repeat X times 
01D2   2???           00038         GOTO    loopX           ; until Z
01D3   0008           00039         RETURN                  ; and finish
                      00040 
                      00041 ;--------------------------------------------------------------
                      00042 ;       Generate data/command clock siganl E
                      00043 ;--------------------------------------------------------------
01D4   1685           00044 pulseE  BSF     PORTA,E         ; Set E high
01D5   2???           00045         CALL    onems           ; Delay 1ms
01D6   2???           00046         CALL    onems           ; Delay 1ms
01D7   2???           00047         CALL    onems           ; Delay 1ms
01D8   2???           00048         CALL    onems           ; Delay 1ms
01D9   2???           00049         CALL    onems           ; Delay 1ms
                      00050 
01DA   1285           00051         BCF     PORTA,E         ; Reset E low
                      00052 
01DB   2???           00053         CALL    onems           ; Delay 1ms
01DC   2???           00054         CALL    onems           ; Delay 1ms
01DD   2???           00055         CALL    onems           ; Delay 1ms
01DE   2???           00056         CALL    onems           ; Delay 1ms
01DF   2???           00057         CALL    onems           ; Delay 1ms
01E0   0008           00058         RETURN                  ; done
                      00059 
                      00060 ;--------------------------------------------------------------
                      00061 ;       Send a command byte in two nibbles from RB4 - RB7
                      00062 ;       Receives command in W, uses PulseE and Onems
                      00063 ;--------------------------------------------------------------
01E1   00F5           00064 send    MOVWF   OutCod          ; Store output code
01E2   39F0           00065         ANDLW   0xF0            ; Clear low nybble
01E3   00F2           00066         MOVWF Var
Message[305]: Using default destination of 1 (file).
01E4   0EF2           00067         SWAPF Var
01E5   0872           00068         MOVF Var, w
01E6   0085           00069         MOVWF   PORTA           ; Output high nybble
                      00070 
                      00071 
01E7   1A74           00072         BTFSC   Select,RS       ; Test RS bit
01E8   1605           00073         BSF     PORTA,RS        ; and set for data
                      00074 
01E9   2???           00075         CALL    pulseE          ; and clock display register
MPASM  5.50                           PIC.ASM   7-27-2023  10:27:58         PAGE 18


LOC  OBJECT CODE     LINE SOURCE TEXT
  VALUE

01EA   2???           00076         CALL    onems           ; wait 1ms for display
                      00077 
01EB   0875           00078         MOVF    OutCod,W        ; Retrieve output code
01EC   390F           00079         ANDLW   0x0F            ; Clear low nybble
01ED   0185           00080         CLRF PORTA
01EE   0085           00081         MOVWF   PORTA           ; Output low nybble
                      00082 
01EF   1A74           00083         BTFSC   Select,RS       ; Test RS bit
01F0   1605           00084         BSF     PORTA,RS        ; and set for data
                      00085 
01F1   2???           00086         CALL    pulseE          ; and clock display register
01F2   2???           00087         CALL    onems           ; wait 1ms for display
01F3   0008           00088         RETURN                  ; done
                      00089 
                      00090 ;--------------------------------------------------------------
                      00091 ;       Initialise the display
                      00092 ;       Uses Send
                      00093 ;--------------------------------------------------------------
01F4   3064           00094 inid    MOVLW   D'100'          ; Load count for 100ms delay
01F5   2???           00095         CALL    xms             ; and wait for display start
01F6   300F           00096         MOVLW   0x0F    ; Mask for select code
01F7   00F4           00097         MOVWF   Select          ; High nybble not masked
                      00098 
                      00099 
01F8   1683 1303      00100         BANKSEL TRISA
Message[302]: Register in operand not in bank 0.  Ensure that bank bits are correct.
01FA   0185           00101         CLRF TRISA
                      00102         
01FB   1283 1303      00103         BANKSEL PORTA
01FD   0185           00104         CLRF PORTA
                      00105         ; to convert to digital outputs
01FE   1683 1303      00106         BANKSEL ADCON1
0200   3006           00107         MOVLW 0x06
Message[302]: Register in operand not in bank 0.  Ensure that bank bits are correct.
0201   009F           00108         MOVWF ADCON1
                      00109 
0202   1283 1303      00110         BANKSEL PORTA
                      00111 
                      00112         ;D5 = 0, D4 = 0, OF LCD SO PORTA0 = 1, PORTA1 = 1
0204   3003           00113         MOVLW   0x03            ; Load initial nibble
0205   0085           00114         MOVWF   PORTA           ; and output it to display
0206   2???           00115         CALL    pulseE          ; Latch initial code
0207   3005           00116         MOVLW   D'5'            ; Set delay 5ms
0208   2???           00117         CALL    xms             ; and wait
0209   2???           00118         CALL    pulseE          ; Latch initial code again
020A   2???           00119         CALL    onems           ; Wait 1ms
020B   2???           00120         CALL    pulseE          ; Latch initial code again
020C   1005           00121         BCF     PORTA,0         ; Set 4-bit mode
020D   2???           00122         CALL    pulseE          ; Latch it
                      00123         
020E   3028           00124         MOVLW   0x28            ; Set 4-bit mode, 2 lines
020F   2???           00125         CALL    send            ; and send code
0210   3008           00126         MOVLW   0x08            ; Switch off display
MPASM  5.50                           PIC.ASM   7-27-2023  10:27:58         PAGE 19


LOC  OBJECT CODE     LINE SOURCE TEXT
  VALUE

0211   2???           00127         CALL    send            ; and send code
0212   3001           00128         MOVLW   0x01            ; Code to clear display
0213   2???           00129         CALL    send            ; and send code
0214   3006           00130         MOVLW   0x06            ; Enable cursor auto inc  
0215   2???           00131         CALL    send            ; and send code
0216   30C0           00132         MOVLW   0xC0            ; Zero display address
0217   2???           00133         CALL    send            ; and send code
0218   300C           00134         MOVLW   0x0C            ; Turn on display  
0219   2???           00135         CALL    send            ; and send code
                      00136 
021A   0008           00137         RETURN                  ; Done
                      00138 
                      00139 ;--------------------------------------------------------------
021B   3E30           00140 numToASCII ADDLW 0x30        ; Convert to ASCII character
021C   0008           00141         RETURN
                      00142 
                      00143         
021D                  00144 TimerCon
021D   100C           00145     BCF PIR1, TMR1IF
021E   018F           00146     CLRF TMR1H                       ; Clear Timer1 high byte
021F   018E           00147     CLRF TMR1L                       ; Clear Timer1 low byte
0220   30E1           00148     MOVLW 0xE1                       ; Load 0xE1 into W
0221   008F           00149     MOVWF TMR1H                      ; Set Timer1 high byte
0222   30F4           00150     MOVLW 0xF4                       ; Load 0xF4 into W
0223   008E           00151     MOVWF TMR1L                      ; Set Timer1 low byte
0224   0008           00152     RETURN
                      00153     
                      00154     
                      00155     
0225                  00156 TC1
0225   301E           00157     MOVLW 0x1E                       ; Set the high byte of the initial value (0x1E0C)
0226   008F           00158     MOVWF TMR1H
0227   300C           00159     MOVLW 0x0C                       ; Set the low byte of the initial value (0x1E0C)
0228   008E           00160     MOVWF TMR1L
0229   3001           00161     MOVLW 0x01                       ; Set TMR1ON and TMR1CS bits (Timer1 enabled, use internal clock)
022A   0090           00162     MOVWF T1CON
022B   0008           00163     RETURN
                      00164     
022C                  00165 PrintRes:
022C   3045           00166     MOVLW 'E'
022D   2???           00167     CALL send
022E   306E           00168     MOVLW 'n'
022F   2???           00169     CALL send
0230   3074           00170     MOVLW 't'
0231   2???           00171     CALL send
0232   3065           00172     MOVLW 'e'
0233   2???           00173     CALL send
0234   3072           00174     MOVLW 'r'
0235   2???           00175     CALL send
0236   3020           00176     MOVLW ' '
0237   2???           00177     CALL send
0238   304F           00178     MOVLW 'O'
0239   2???           00179     CALL send
MPASM  5.50                           PIC.ASM   7-27-2023  10:27:58         PAGE 20


LOC  OBJECT CODE     LINE SOURCE TEXT
  VALUE

023A   3070           00180     MOVLW 'p'
023B   2???           00181     CALL send
023C   3065           00182     MOVLW 'e'
023D   2???           00183     CALL send
023E   3072           00184     MOVLW 'r'
023F   2???           00185     CALL send
0240   3061           00186     MOVLW 'a'
0241   2???           00187     CALL send
0242   3074           00188     MOVLW 't'
0243   2???           00189     CALL send
0244   3069           00190     MOVLW 'i'
0245   2???           00191     CALL send
0246   306F           00192     MOVLW 'o'
0247   2???           00193     CALL send
0248   306E           00194     MOVLW 'n'
0249   2???           00195     CALL send 
Warning[203]: Found opcode in column 1. (RETURN)
024A   0008           00196 RETURN
024B                  00197 PrintOp
024B   3052           00198     MOVLW 'R'
024C   2???           00199     CALL send
                      00200     ; Send the ASCII code for 'n' to display the character
024D   3065           00201     MOVLW 'e'
024E   2???           00202     CALL send
                      00203     ; Send the ASCII code for 't' to display the character
024F   3073           00204     MOVLW 's'
0250   2???           00205     CALL send
                      00206     ; Send the ASCII code for 'e' to display the character
0251   3075           00207     MOVLW 'u'
0252   2???           00208     CALL send
0253   306C           00209     MOVLW 'l'
0254   2???           00210     CALL send
                      00211     ; Send the ASCII code for ' ' to display the character
0255   3074           00212     MOVLW 't'
0256   2???           00213     CALL send  
0257   0008           00214     RETURN
                      00215     
                      00216     
                      00217     
Warning[207]: Found label after column 1. (PrintErr)
0258                  00218     PrintErr
0258   304D           00219     MOVLW 'M'
0259   2???           00220     CALL send
                      00221     ; Send the ASCII code for 'n' to display the character
025A   3061           00222     MOVLW 'a'
025B   2???           00223     CALL send
                      00224     ; Send the ASCII code for 't' to display the character
025C   3074           00225     MOVLW 't'
025D   2???           00226     CALL send
                      00227     ; Send the ASCII code for 'e' to display the character
025E   3068           00228     MOVLW 'h'
025F   2???           00229     CALL send
0260   3020           00230     MOVLW ' '
MPASM  5.50                           PIC.ASM   7-27-2023  10:27:58         PAGE 21


LOC  OBJECT CODE     LINE SOURCE TEXT
  VALUE

0261   2???           00231     CALL send
                      00232     ; Send the ASCII code for ' ' to display the character
0262   3065           00233     MOVLW 'e'
0263   2???           00234     CALL send  
0264   3072           00235     MOVLW 'r'
0265   2???           00236     CALL send  
0266   3072           00237     MOVLW 'r'
0267   2???           00238     CALL send
0268   306F           00239     MOVLW 'o'
0269   2???           00240     CALL send
026A   3072           00241     MOVLW 'r'
026B   2???           00242     CALL send
026C   303A           00243     MOVLW ':'
026D   2???           00244     CALL send
026E   3028           00245     MOVLW '('
026F   2???           00246     CALL send      
0270   0008           00247     RETURN
                      00248     
0271                  00249 CountersInit
Warning[202]: Argument out of range.  Least significant bits used.
0271   3000           00250     MOVLW 100                          ; Load the value 1 into the W register
0272   00A9           00251     MOVWF Counter1                   ; Move the value from W register to Counter1
Warning[203]: Found opcode in column 1. (MOVLW)
Warning[202]: Argument out of range.  Least significant bits used.
0273   3000           00252 MOVLW 200                        ; Load the value 1 into the W register
0274   00EC           00253     MOVWF Counter2                   ; Move the value from W register to Counter1
0275   0008           00254     RETURN
                      00255     
                      00256     
0276                  00257 ClearLoopCounters
Warning[203]: Found opcode in column 1. (CLRF)
0276   01CA           00258 CLRF counter1
Warning[203]: Found opcode in column 1. (CLRF)
0277   01CB           00259 CLRF counter2
Warning[203]: Found opcode in column 1. (CLRF)
0278   01CC           00260 CLRF counter3
Warning[203]: Found opcode in column 1. (RETURN)
0279   0008           00261 RETURN
                      00262     
027A                  00263 DisableTimer
027A   100C           00264     BCF PIR1, TMR1IF
Message[302]: Register in operand not in bank 0.  Ensure that bank bits are correct.
027B   100C           00265     BCF PIE1, TMR1IE                 ; Disable Timer1 interrupt
027C   3000           00266     MOVLW 0x00                       ; Set TMR1ON and TMR1CS bits (Timer1 enabled, use internal clock)
027D   0090           00267     MOVWF T1CON
027E   0008           00268     RETURN
                      00269     
                      00270     
                      00708 
                      00709 ; The main code for our program
027F                  00710 start:
Warning[203]: Found opcode in column 1. (CALL)
027F   2???           00711 CALL CountersInit
MPASM  5.50                           PIC.ASM   7-27-2023  10:27:58         PAGE 22


LOC  OBJECT CODE     LINE SOURCE TEXT
  VALUE

Warning[203]: Found opcode in column 1. (CALL)
0280   2???           00712 CALL TC1
                      00713 
0281   160B           00714     BSF INTCON, INTE                 ; Enable external interrupt
0282   01A8           00715     CLRF Counter                     ; Initialize the counter value to zero
                      00716 
0283                  00717 program_loop:
Message[302]: Register in operand not in bank 0.  Ensure that bank bits are correct.
0283   140C           00718     BSF PIE1, TMR1IE
0284   1274           00719     BCF Select, RS
                      00720     ; Set cursor to the second line, first position (address 0x40)
0285   30C0           00721     MOVLW 0xC0
0286   2???           00722     CALL send                        ; Send command to set cursor position
0287   1674           00723     BSF Select, RS                   ; Set RS bit for data
0288   3030           00724     MOVLW '0'
0289   2???           00725     CALL send 
028A   0AA8           00726     INCF Counter, F                ; Move the value of Counter to W register
028B                  00727 Wait5Seconds:
                      00728 
Warning[203]: Found opcode in column 1. (CALL)
028B   2???           00729 CALL TimerCon
                      00730 
                      00731     ; Loop until 5 seconds have passed
Warning[207]: Found label after column 1. (LOOP)
028C                  00732     LOOP:
028C   1C0C           00733         BTFSS PIR1, TMR1IF            ; Check Timer1 interrupt flag
028D   2???           00734         GOTO LOOP
                      00735 
028E   0BA9           00736     DECFSZ Counter1, 1                ; Decrement Counter1
028F   2???           00737     GOTO Wait5Seconds                 ; Loop until Counter1 is zero
                      00738 
0290   2???           00739     CALL DisableTimer
0291   082A           00740     MOVF CounterTemp, W                  ; Load counter value into W register
0292   00B1           00741     MOVWF tenThousandsFirstNum        ; Store the counter value in tenThousandsFirstNum
0293   3001           00742     MOVLW 1                          ; Set tenThousandsFirst flag to 1
0294   00AB           00743     MOVWF tenThousandsFirst
Message[302]: Register in operand not in bank 0.  Ensure that bank bits are correct.
0295   140C           00744     BSF PIE1, TMR1IE                 ; Enable Timer1 interrupt
0296   01A8           00745     CLRF Counter                     ; Reset the counter value to zero
0297   01AA           00746     CLRF CounterTemp                     ; Reset the counter value to zero
Warning[202]: Argument out of range.  Least significant bits used.
0298   3000           00747     MOVLW 100                          ; Load the value 1 into the W register
0299   00A9           00748     MOVWF Counter1
029A   3001           00749     MOVLW 0x01                       ; Set TMR1ON and TMR1CS bits (Timer1 enabled, use internal clock)
029B   0090           00750     MOVWF T1CON
029C   160B           00751     BSF INTCON, INTE                 ; Enable external interrupt
029D   3030           00752     MOVLW '0'
029E   2???           00753     CALL send 
029F   0AA8           00754     INCF Counter, F  
02A0                  00755 Wait5Seconds1:
                      00756    
Warning[203]: Found opcode in column 1. (CALL)
02A0   2???           00757 CALL TimerCon
MPASM  5.50                           PIC.ASM   7-27-2023  10:27:58         PAGE 23


LOC  OBJECT CODE     LINE SOURCE TEXT
  VALUE

                      00758     ; Loop until 5 seconds have passed
Warning[207]: Found label after column 1. (LOOP1)
02A1                  00759     LOOP1:
                      00760 
02A1   1C0C           00761         BTFSS PIR1, TMR1IF            ; Check Timer1 interrupt flag
02A2   2???           00762         GOTO LOOP1
02A3   0BA9           00763     DECFSZ Counter1, 1                ; Decrement Counter1
02A4   2???           00764     GOTO Wait5Seconds1                 ; Loop until Counter1 is zero
02A5   2???           00765     CALL DisableTimer
02A6   082A           00766     MOVF CounterTemp, W                  ; Load counter value into W register
02A7   00B2           00767     MOVWF ThousandsFirstNum        ; Store the counter value in tenThousandsFirstNum
02A8   3001           00768     MOVLW 1                          ; Set tenThousandsFirst flag to 1
02A9   00AC           00769     MOVWF ThousandsFirst
Message[302]: Register in operand not in bank 0.  Ensure that bank bits are correct.
02AA   140C           00770     BSF PIE1, TMR1IE                 ; Enable Timer1 interrupt
02AB   01A8           00771     CLRF Counter                     ; Reset the counter value to zero
02AC   01AA           00772     CLRF CounterTemp                     ; Reset the counter value to zero
Warning[202]: Argument out of range.  Least significant bits used.
02AD   3000           00773     MOVLW 100                          ; Load the value 1 into the W register
02AE   00A9           00774     MOVWF Counter1                   ; Move the value from W register to Counter1
02AF   3001           00775     MOVLW 0x01                       ; Set TMR1ON and TMR1CS bits (Timer1 enabled, use internal clock)
02B0   0090           00776     MOVWF T1CON
02B1   160B           00777     BSF INTCON, INTE                 ; Enable external interrupt
02B2   3030           00778     MOVLW '0'
02B3   2???           00779     CALL send 
02B4   0AA8           00780     INCF Counter, F  
02B5                  00781 Wait5Seconds2:
Warning[203]: Found opcode in column 1. (CALL)
02B5   2???           00782 CALL TimerCon
Warning[207]: Found label after column 1. (LOOP2)
02B6                  00783     LOOP2:
02B6   1C0C           00784         BTFSS PIR1, TMR1IF            ; Check Timer1 interrupt flag
02B7   2???           00785         GOTO LOOP2
02B8   0BA9           00786     DECFSZ Counter1, 1                ; Decrement Counter1
02B9   2???           00787     GOTO Wait5Seconds2                 ; Loop until Counter1 is zero
02BA   2???           00788     CALL DisableTimer
02BB   082A           00789     MOVF CounterTemp, W                  ; Load counter value into W register
02BC   00B3           00790     MOVWF HundredsFirstNum        ; Store the counter value in tenThousandsFirstNum
02BD   3001           00791     MOVLW 1                          ; Set tenThousandsFirst flag to 1
02BE   00AD           00792     MOVWF HundredsFirst
Message[302]: Register in operand not in bank 0.  Ensure that bank bits are correct.
02BF   140C           00793     BSF PIE1, TMR1IE                 ; Enable Timer1 interrupt
02C0   01A8           00794     CLRF Counter                     ; Reset the counter value to zero
02C1   01AA           00795     CLRF CounterTemp                     ; Reset the counter value to zero
Warning[202]: Argument out of range.  Least significant bits used.
02C2   3000           00796     MOVLW 100                          ; Load the value 1 into the W register
02C3   00A9           00797     MOVWF Counter1                   ; Move the value from W register to Counter1
                      00798 
02C4   3001           00799     MOVLW 0x01                       ; Set TMR1ON and TMR1CS bits (Timer1 enabled, use internal clock)
02C5   0090           00800     MOVWF T1CON
                      00801 
02C6   160B           00802     BSF INTCON, INTE                 ; Enable external interrupt
02C7   3030           00803       MOVLW '0'
MPASM  5.50                           PIC.ASM   7-27-2023  10:27:58         PAGE 24


LOC  OBJECT CODE     LINE SOURCE TEXT
  VALUE

02C8   2???           00804     CALL send 
02C9   0AA8           00805     INCF Counter, F  
02CA                  00806 Wait5Seconds3:
Warning[203]: Found opcode in column 1. (CALL)
02CA   2???           00807 CALL TimerCon
                      00808 
                      00809     ; Loop until 5 seconds have passed
Warning[207]: Found label after column 1. (LOOP3)
02CB                  00810     LOOP3:
02CB   1C0C           00811         BTFSS PIR1, TMR1IF            ; Check Timer1 interrupt flag
02CC   2???           00812         GOTO LOOP3
                      00813 
02CD   0BA9           00814     DECFSZ Counter1, 1                ; Decrement Counter1
02CE   2???           00815     GOTO Wait5Seconds3                 ; Loop until Counter1 is zero
                      00816     ; Timer1 interrupt occurred, reset the Timer1 interrupt flag
02CF   2???           00817     CALL DisableTimer
02D0   082A           00818     MOVF CounterTemp, W                  ; Load counter value into W register
02D1   00B4           00819     MOVWF TensFirstNum        ; Store the counter value in tenThousandsFirstNum
02D2   3001           00820     MOVLW 1                          ; Set tenThousandsFirst flag to 1
02D3   00AF           00821     MOVWF TensFirst
Message[302]: Register in operand not in bank 0.  Ensure that bank bits are correct.
02D4   140C           00822     BSF PIE1, TMR1IE                 ; Enable Timer1 interrupt
02D5   01A8           00823     CLRF Counter                     ; Reset the counter value to zero
02D6   01AA           00824     CLRF CounterTemp                     ; Reset the counter value to zero
Warning[202]: Argument out of range.  Least significant bits used.
02D7   3000           00825     MOVLW 100                         ; Load the value 1 into the W register
02D8   00A9           00826     MOVWF Counter1                   ; Move the value from W register to Counter1
                      00827     
                      00828     ;;;;;;;;;;;;;;;;;;;;;;;;;;;;;;ones;;;;;;;;;;;;;;;;;;;;;;;;;;;;;;;;;;
                      00829 
02D9   3001           00830     MOVLW 0x01                       ; Set TMR1ON and TMR1CS bits (Timer1 enabled, use internal clock)
02DA   0090           00831     MOVWF T1CON
02DB   160B           00832     BSF INTCON, INTE                 ; Enable external interrupt
02DC   3030           00833       MOVLW '0'
02DD   2???           00834     CALL send 
02DE   0AA8           00835     INCF Counter, F  
02DF                  00836 Wait5Seconds4:
Warning[203]: Found opcode in column 1. (CALL)
02DF   2???           00837 CALL TimerCon
                      00838 
Warning[207]: Found label after column 1. (LOOP4)
02E0                  00839     LOOP4:
02E0   1C0C           00840         BTFSS PIR1, TMR1IF            ; Check Timer1 interrupt flag
02E1   2???           00841         GOTO LOOP4
                      00842 
02E2   0BA9           00843     DECFSZ Counter1, 1                ; Decrement Counter1
02E3   2???           00844     GOTO Wait5Seconds4                 ; Loop until Counter1 is zero
                      00845 
                      00846     ; Timer1 interrupt occurred, reset the Timer1 interrupt flag
02E4   2???           00847     CALL DisableTimer
02E5   082A           00848     MOVF CounterTemp, W                  ; Load counter value into W register
02E6   00B5           00849     MOVWF OnesFirstNum        ; Store the counter value in tenThousandsFirstNum
02E7   3001           00850     MOVLW 1                          ; Set tenThousandsFirst flag to 1
MPASM  5.50                           PIC.ASM   7-27-2023  10:27:58         PAGE 25


LOC  OBJECT CODE     LINE SOURCE TEXT
  VALUE

02E8   00B0           00851     MOVWF OnesFirst
Message[302]: Register in operand not in bank 0.  Ensure that bank bits are correct.
02E9   140C           00852     BSF PIE1, TMR1IE                 ; Enable Timer1 interrupt
02EA   01A8           00853     CLRF Counter                     ; Reset the counter value to zero
02EB   01AA           00854     CLRF CounterTemp                     ; Reset the counter value to zero
Warning[202]: Argument out of range.  Least significant bits used.
02EC   3000           00855     MOVLW 100                          ; Load the value 1 into the W register
02ED   00A9           00856     MOVWF Counter1                   ; Move the value from W register to Counter1
02EE   3001           00857     MOVLW 0x01                       ; Set TMR1ON and TMR1CS bits (Timer1 enabled, use internal clock)
02EF   0090           00858     MOVWF T1CON
02F0   160B           00859     BSF INTCON, INTE                 ; Enable external interrupt
02F1   302B           00860     MOVLW '+'
02F2   00A6           00861     MOVWF savedSymbol
02F3   302B           00862       MOVLW '+'
02F4   2???           00863     CALL send 
02F5   0AA5           00864     INCF SymbolCounter, F
                      00865   
02F6                  00866 Wait5Seconds5:
Warning[203]: Found opcode in column 1. (CALL)
02F6   2???           00867 CALL TimerCon
                      00868     ; Loop until 5 seconds have passed
Warning[207]: Found label after column 1. (LOOP5)
02F7                  00869     LOOP5:
02F7   1C0C           00870         BTFSS PIR1, TMR1IF            ; Check Timer1 interrupt flag
02F8   2???           00871         GOTO LOOP5
02F9   0BA9           00872     DECFSZ Counter1, 1                ; Decrement Counter1
02FA   2???           00873     GOTO Wait5Seconds5                 ; Loop until Counter1 is zero
Warning[203]: Found opcode in column 1. (CALL)
02FB   2???           00874 CALL DisableTimer
02FC   3001           00875     MOVLW 1                          ; Set tenThousandsFirst flag to 1
02FD   00A7           00876     MOVWF symbol
Message[302]: Register in operand not in bank 0.  Ensure that bank bits are correct.
02FE   140C           00877     BSF PIE1, TMR1IE                 ; Enable Timer1 interrupt
02FF   01A8           00878     CLRF Counter                     ; Reset the counter value to zero
0300   01AA           00879     CLRF CounterTemp                     ; Reset the counter value to zero
Warning[202]: Argument out of range.  Least significant bits used.
0301   3000           00880     MOVLW 100                          ; Load the value 1 into the W register
0302   00A9           00881     MOVWF Counter1                   ; Move the value from W register to Counter1
                      00882      ;;;;;;;;;;;;;;;;;;;;;;;;;;;;;;secondtensthounsands;;;;;;;;;;;;;;;;;;;;;;;;;;;;;;;;;;
0303   3001           00883     MOVLW 0x01                       ; Set TMR1ON and TMR1CS bits (Timer1 enabled, use internal clock)
0304   0090           00884     MOVWF T1CON
0305   160B           00885     BSF INTCON, INTE                 ; Enable external interrupt
0306   3030           00886       MOVLW '0'
0307   2???           00887     CALL send 
0308   0AA8           00888     INCF Counter, F  
0309                  00889 Wait5Seconds6:
Warning[203]: Found opcode in column 1. (CALL)
0309   2???           00890 CALL TimerCon
                      00891 
                      00892     ; Loop until 5 seconds have passed
Warning[207]: Found label after column 1. (LOOP6)
030A                  00893     LOOP6:
030A   1C0C           00894         BTFSS PIR1, TMR1IF            ; Check Timer1 interrupt flag
MPASM  5.50                           PIC.ASM   7-27-2023  10:27:58         PAGE 26


LOC  OBJECT CODE     LINE SOURCE TEXT
  VALUE

030B   2???           00895         GOTO LOOP6
030C   0BA9           00896     DECFSZ Counter1, 1                ; Decrement Counter1
030D   2???           00897     GOTO Wait5Seconds6                 ; Loop until Counter1 is zero
                      00898     ; Timer1 interrupt occurred, reset the Timer1 interrupt flag
Warning[203]: Found opcode in column 1. (CALL)
030E   2???           00899 CALL DisableTimer
030F   082A           00900     MOVF CounterTemp, W                  ; Load counter value into W register
0310   00CD           00901     MOVWF tenThousandsSecondNum        ; Store the counter value in tenThousandsFirstNum
0311   3001           00902     MOVLW 1                          ; Set tenThousandsFirst flag to 1
0312   00D4           00903     MOVWF tenThousandsSecond
Message[302]: Register in operand not in bank 0.  Ensure that bank bits are correct.
0313   140C           00904     BSF PIE1, TMR1IE                 ; Enable Timer1 interrupt
0314   01A8           00905     CLRF Counter                     ; Reset the counter value to zero
0315   01AA           00906     CLRF CounterTemp                     ; Reset the counter value to zero
Warning[202]: Argument out of range.  Least significant bits used.
0316   3000           00907     MOVLW 100                        ; Load the value 1 into the W register
0317   00A9           00908     MOVWF Counter1                   ; Move the value from W register to Counter1
                      00909 ;;;;;;;;;;;;;;;second thousands;;;;;;;;;;;;;;;
0318   3001           00910     MOVLW 0x01                       ; Set TMR1ON and TMR1CS bits (Timer1 enabled, use internal clock)
0319   0090           00911     MOVWF T1CON
031A   160B           00912     BSF INTCON, INTE                 ; Enable external interrupt
031B   3030           00913       MOVLW '0'
031C   2???           00914     CALL send 
031D   0AA8           00915     INCF Counter, F  
031E                  00916 Wait5Seconds7:
Warning[203]: Found opcode in column 1. (CALL)
031E   2???           00917 CALL TimerCon
                      00918     ; Loop until 5 seconds have passed
Warning[207]: Found label after column 1. (LOOP7)
031F                  00919     LOOP7:
031F   1C0C           00920         BTFSS PIR1, TMR1IF            ; Check Timer1 interrupt flag
0320   2???           00921         GOTO LOOP7
0321   0BA9           00922     DECFSZ Counter1, 1                ; Decrement Counter1
0322   2???           00923     GOTO Wait5Seconds7                 ; Loop until Counter1 is zero
                      00924     ; Timer1 interrupt occurred, reset the Timer1 interrupt flag
0323   2???           00925     CALL DisableTimer
0324   082A           00926     MOVF CounterTemp, W                  ; Load counter value into W register
0325   00CE           00927     MOVWF ThousandsSecondNum        ; Store the counter value in tenThousandsFirstNum
0326   3001           00928     MOVLW 1                          ; Set tenThousandsFirst flag to 1
0327   00D5           00929     MOVWF ThousandsSecond
Message[302]: Register in operand not in bank 0.  Ensure that bank bits are correct.
0328   140C           00930     BSF PIE1, TMR1IE                 ; Enable Timer1 interrupt
0329   01A8           00931     CLRF Counter                     ; Reset the counter value to zero
032A   01AA           00932     CLRF CounterTemp                     ; Reset the counter value to zero
Warning[202]: Argument out of range.  Least significant bits used.
032B   3000           00933     MOVLW 100                         ; Load the value 1 into the W register
032C   00A9           00934     MOVWF Counter1                   ; Move the value from W register to Counter1
                      00935     
032D   3001           00936     MOVLW 0x01                       ; Set TMR1ON and TMR1CS bits (Timer1 enabled, use internal clock)
032E   0090           00937     MOVWF T1CON
032F   160B           00938     BSF INTCON, INTE                 ; Enable external interrupt
0330   3030           00939       MOVLW '0'
0331   2???           00940     CALL send 
MPASM  5.50                           PIC.ASM   7-27-2023  10:27:58         PAGE 27


LOC  OBJECT CODE     LINE SOURCE TEXT
  VALUE

0332   0AA8           00941     INCF Counter, F  
0333                  00942 Wait5Seconds8:
Warning[203]: Found opcode in column 1. (CALL)
0333   2???           00943 CALL TimerCon
                      00944     ; Loop until 5 seconds have passed
Warning[207]: Found label after column 1. (LOOP8)
0334                  00945     LOOP8:
0334   1C0C           00946         BTFSS PIR1, TMR1IF            ; Check Timer1 interrupt flag
0335   2???           00947         GOTO LOOP8
0336   0BA9           00948     DECFSZ Counter1, 1                ; Decrement Counter1
0337   2???           00949     GOTO Wait5Seconds8                 ; Loop until Counter1 is zero
Warning[203]: Found opcode in column 1. (CALL)
0338   2???           00950 CALL DisableTimer
                      00951 
                      00952     ; Reset Timer1 registers for next iteration
0339   082A           00953     MOVF CounterTemp, W                  ; Load counter value into W register
033A   00CF           00954     MOVWF HundredsSecondNum        ; Store the counter value in tenThousandsFirstNum
033B   3001           00955     MOVLW 1                          ; Set tenThousandsFirst flag to 1
033C   00D6           00956     MOVWF HundredsSecond
Message[302]: Register in operand not in bank 0.  Ensure that bank bits are correct.
033D   140C           00957     BSF PIE1, TMR1IE                 ; Enable Timer1 interrupt
033E   01A8           00958     CLRF Counter                     ; Reset the counter value to zero
033F   01AA           00959     CLRF CounterTemp                     ; Reset the counter value to zero
Warning[202]: Argument out of range.  Least significant bits used.
0340   3000           00960     MOVLW 100                          ; Load the value 1 into the W register
0341   00A9           00961     MOVWF Counter1                   ; Move the value from W register to Counter1
                      00962      ;;;;;;;;;;;;;;;second Tens;;;;;;;;;;;;;;;
0342   3001           00963     MOVLW 0x01                       ; Set TMR1ON and TMR1CS bits (Timer1 enabled, use internal clock)
0343   0090           00964     MOVWF T1CON
0344   160B           00965     BSF INTCON, INTE                 ; Enable external interrupt
0345   3030           00966       MOVLW '0'
0346   2???           00967     CALL send 
0347   0AA8           00968     INCF Counter, F  
0348                  00969 Wait5Seconds9:
Warning[203]: Found opcode in column 1. (CALL)
0348   2???           00970 CALL TimerCon
                      00971     ; Loop until 5 seconds have passed
Warning[207]: Found label after column 1. (LOOP9)
0349                  00972     LOOP9:
0349   1C0C           00973         BTFSS PIR1, TMR1IF            ; Check Timer1 interrupt flag
034A   2???           00974         GOTO LOOP9
034B   0BA9           00975     DECFSZ Counter1, 1                ; Decrement Counter1
034C   2???           00976     GOTO Wait5Seconds9                 ; Loop until Counter1 is zero
                      00977     ; Timer1 interrupt occurred, reset the Timer1 interrupt flag
034D   100C           00978     BCF PIR1, TMR1IF
Message[302]: Register in operand not in bank 0.  Ensure that bank bits are correct.
034E   100C           00979     BCF PIE1, TMR1IE                 ; Disable Timer1 interrupt
034F   3000           00980     MOVLW 0x00                       ; Set TMR1ON and TMR1CS bits (Timer1 enabled, use internal clock)
0350   0090           00981     MOVWF T1CON
                      00982     ; Reset Timer1 registers for next iteration
0351   082A           00983     MOVF CounterTemp, W                  ; Load counter value into W register
0352   00D0           00984     MOVWF TensSecondNum        ; Store the counter value in tenThousandsFirstNum
0353   3001           00985     MOVLW 1                          ; Set tenThousandsFirst flag to 1
MPASM  5.50                           PIC.ASM   7-27-2023  10:27:58         PAGE 28


LOC  OBJECT CODE     LINE SOURCE TEXT
  VALUE

0354   00D2           00986     MOVWF TensSecond
Message[302]: Register in operand not in bank 0.  Ensure that bank bits are correct.
0355   140C           00987     BSF PIE1, TMR1IE                 ; Enable Timer1 interrupt
0356   01A8           00988     CLRF Counter                     ; Reset the counter value to zero
0357   01AA           00989     CLRF CounterTemp                     ; Reset the counter value to zero
Warning[202]: Argument out of range.  Least significant bits used.
0358   3000           00990     MOVLW 100                        ; Load the value 1 into the W register
0359   00A9           00991     MOVWF Counter1                   ; Move the value from W register to Counter1
035A   3001           00992     MOVLW 0x01                       ; Set TMR1ON and TMR1CS bits (Timer1 enabled, use internal clock)
035B   0090           00993     MOVWF T1CON
035C   160B           00994     BSF INTCON, INTE                 ; Enable external interrupt
035D   3030           00995       MOVLW '0'
035E   2???           00996     CALL send 
035F   0AA8           00997     INCF Counter, F  
0360                  00998 Wait5Seconds10:
Warning[203]: Found opcode in column 1. (CALL)
0360   2???           00999 CALL TimerCon
                      01000     ; Loop until 5 seconds have passed
Warning[207]: Found label after column 1. (LOOP10)
0361                  01001     LOOP10:
0361   1C0C           01002         BTFSS PIR1, TMR1IF            ; Check Timer1 interrupt flag
0362   2???           01003         GOTO LOOP10
0363   0BA9           01004     DECFSZ Counter1, 1                ; Decrement Counter1
0364   2???           01005     GOTO Wait5Seconds10                 ; Loop until Counter1 is zero
0365   100C           01006     BCF PIR1, TMR1IF
Message[302]: Register in operand not in bank 0.  Ensure that bank bits are correct.
0366   100C           01007     BCF PIE1, TMR1IE                 ; Disable Timer1 interrupt
0367   3000           01008     MOVLW 0x00                       ; Set TMR1ON and TMR1CS bits (Timer1 enabled, use internal clock)
0368   0090           01009     MOVWF T1CON
0369   082A           01010     MOVF CounterTemp, W                  ; Load counter value into W register
036A   00D1           01011     MOVWF OnesSecondNum        ; Store the counter value in tenThousandsFirstNum
036B   3001           01012     MOVLW 1                          ; Set tenThousandsFirst flag to 1
036C   00D3           01013     MOVWF OnesSecond
Message[302]: Register in operand not in bank 0.  Ensure that bank bits are correct.
036D   140C           01014     BSF PIE1, TMR1IE                 ; Enable Timer1 interrupt
036E   01A8           01015     CLRF Counter                     ; Reset the counter value to zero
036F   01AA           01016     CLRF CounterTemp                     ; Reset the counter value to zero
Warning[202]: Argument out of range.  Least significant bits used.
0370   3000           01017     MOVLW 100                         ; Load the value 1 into the W register
0371   00A9           01018     MOVWF Counter1                   ; Move the value from W register to Counter1
                      01019 ;;;;;;;;;;;;;;;;;;;;;;;;;;;;;;;;;;;;;;;;;;;;;;;;;;;;s   
0372                  01020 SingleDoubleOP: 
Warning[203]: Found opcode in column 1. (MOVLW)
0372   302B           01021 MOVLW '+'
Warning[203]: Found opcode in column 1. (XORWF)
0373   0626           01022 XORWF savedSymbol, W        ; Compare savedSymbol with '+'
Warning[203]: Found opcode in column 1. (BTFSS)
0374   1D03           01023 BTFSS STATUS, Z             ; Branch if not zero (savedSymbol != '+')
Warning[203]: Found opcode in column 1. (GOTO)
0375   2???           01024 GOTO division               ; Go to the division routine
                      01025 ;adddition
0376   01BB           01026     CLRF OnesSum                    ; Clear the sum of ones digit
0377   0835           01027     MOVF OnesFirstNum,W
MPASM  5.50                           PIC.ASM   7-27-2023  10:27:58         PAGE 29


LOC  OBJECT CODE     LINE SOURCE TEXT
  VALUE

Message[305]: Using default destination of 1 (file).
0378   07BB           01028     ADDWF OnesSum
0379   0851           01029     MOVF OnesSecondNum,W
Message[305]: Using default destination of 1 (file).
037A   07BB           01030     ADDWF OnesSum                   ; Store the sum of ones digit
037B   083B           01031     MOVF OnesSum,W
037C   00C5           01032     MOVWF OnesSumT
037D   3009           01033    MOVLW 9
Message[305]: Using default destination of 1 (file).
037E   02C5           01034    SUBWF OnesSumT
037F   1903           01035    BTFSC STATUS, Z
0380   2???           01036    GOTO OnesSumEquals9
0381   1803           01037    BTFSC  STATUS, C 
0382   2???           01038    GOTO OnesSumGreaterThan9
0383   2???           01039    GOTO OnesSumLessThan9
                      01040 
                      01041 
Warning[207]: Found label after column 1. (OnesSumEquals9)
0384                  01042    OnesSumEquals9:
Warning[203]: Found opcode in column 1. (MOVLW)
0384   3000           01043 MOVLW 0       ; Move the value 1 to W register
Warning[203]: Found opcode in column 1. (MOVWF)
0385   00C4           01044 MOVWF Carry   ; Store the value in the Carry variable
0386   2???           01045   GOTO EndComparison
                      01046 
0387                  01047 OnesSumGreaterThan9:
Warning[203]: Found opcode in column 1. (MOVLW)
0387   300A           01048 MOVLW 0x0A       ; Load the immediate value 10 into the W register
Warning[203]: Found opcode in column 1. (SUBWF)
0388   02BB           01049 SUBWF OnesSum, F
Warning[203]: Found opcode in column 1. (MOVLW)
0389   3001           01050 MOVLW 1       ; Move the value 1 to W register
Warning[203]: Found opcode in column 1. (MOVWF)
038A   00C4           01051 MOVWF Carry   ; Store the value in the Carry variable
038B   2???           01052   GOTO EndComparison
                      01053 
038C                  01054 OnesSumLessThan9:
Warning[203]: Found opcode in column 1. (MOVLW)
038C   3000           01055 MOVLW 0       ; Move the value 1 to W register
Warning[203]: Found opcode in column 1. (MOVWF)
038D   00C4           01056 MOVWF Carry   ; Store the value in the Carry variable
038E   2???           01057   GOTO EndComparison
                      01058 
038F                  01059 EndComparison:
                      01060     
                      01061 
038F   01BC           01062     CLRF TensSum                    ; Clear the sum of tens digit
Warning[203]: Found opcode in column 1. (MOVF)
0390   0834           01063 MOVF TensFirstNum, W         ; Move TensFirstNum to W register
Warning[203]: Found opcode in column 1. (ADDWF)
Message[305]: Using default destination of 1 (file).
0391   07BC           01064 ADDWF TensSum      ; Add TensSecondNum to TensFirstNum and store the result in TensSecondNum
Warning[203]: Found opcode in column 1. (MOVF)
MPASM  5.50                           PIC.ASM   7-27-2023  10:27:58         PAGE 30


LOC  OBJECT CODE     LINE SOURCE TEXT
  VALUE

0392   0844           01065 MOVF Carry, W               ; Move the value of Carry to W register
Warning[203]: Found opcode in column 1. (ADDWF)
Message[305]: Using default destination of 1 (file).
0393   07BC           01066 ADDWF TensSum      ; Add the Carry value to the sum of TensFirstNum and TensSecondNum and store the resu
                            lt in TensSecondNum
Warning[203]: Found opcode in column 1. (MOVF)
0394   0850           01067 MOVF TensSecondNum, W 
Warning[203]: Found opcode in column 1. (ADDWF)
Message[305]: Using default destination of 1 (file).
0395   07BC           01068 ADDWF TensSum              ; Move the result to TensSum
Warning[203]: Found opcode in column 1. (MOVF)
0396   083C           01069 MOVF  TensSum,W 
Warning[203]: Found opcode in column 1. (MOVWF)
0397   00C6           01070 MOVWF TensSumT ; Add the value of C1 to HundredsSum and store the result in HundredsSum
0398   3009           01071    MOVLW 9
Message[305]: Using default destination of 1 (file).
0399   02C6           01072    SUBWF TensSumT
039A   1903           01073    BTFSC STATUS, Z
039B   2???           01074    GOTO TensSumEquals9
039C   1803           01075    BTFSC  STATUS, C   
039D   2???           01076    GOTO TensSumGreaterThan9
039E   2???           01077    GOTO TensSumLessThan9
                      01078 
                      01079 
                      01080 
Warning[207]: Found label after column 1. (TensSumEquals9)
039F                  01081    TensSumEquals9:
Warning[203]: Found opcode in column 1. (MOVLW)
039F   3000           01082 MOVLW 0       ; Move the value 1 to W register
Warning[203]: Found opcode in column 1. (MOVWF)
03A0   00C4           01083 MOVWF Carry   ; Store the value in the Carry variable
03A1   2???           01084   GOTO EndComparison1
                      01085 
03A2                  01086 TensSumGreaterThan9:
Warning[203]: Found opcode in column 1. (MOVLW)
03A2   300A           01087 MOVLW 0x0A       ; Load the immediate value 10 into the W register
Warning[203]: Found opcode in column 1. (SUBWF)
03A3   02BC           01088 SUBWF TensSum,F ; Subtract 10 from OnesSum and store the result in W register
Warning[203]: Found opcode in column 1. (MOVLW)
03A4   3001           01089 MOVLW 1       ; Move the value 1 to W register
Warning[203]: Found opcode in column 1. (MOVWF)
03A5   00C4           01090 MOVWF Carry   ; Store the value in the Carry variable
03A6   2???           01091   GOTO EndComparison1
                      01092 
03A7                  01093 TensSumLessThan9:
Warning[203]: Found opcode in column 1. (MOVLW)
03A7   3000           01094 MOVLW 0       ; Move the value 1 to W register
Warning[203]: Found opcode in column 1. (MOVWF)
03A8   00C4           01095 MOVWF Carry   ; Store the value in the Carry variable
03A9   2???           01096   GOTO EndComparison1
                      01097 
03AA                  01098 EndComparison1:
03AA   01BD           01099     CLRF HundredsSum                ; Clear the sum of hundreds digit
MPASM  5.50                           PIC.ASM   7-27-2023  10:27:58         PAGE 31


LOC  OBJECT CODE     LINE SOURCE TEXT
  VALUE

Warning[203]: Found opcode in column 1. (MOVF)
03AB   0833           01100 MOVF HundredsFirstNum, W         ; Move TensFirstNum to W register
Warning[203]: Found opcode in column 1. (ADDWF)
Message[305]: Using default destination of 1 (file).
03AC   07BD           01101 ADDWF HundredsSum      ; Add TensSecondNum to TensFirstNum and store the result in TensSecondNum
Warning[203]: Found opcode in column 1. (MOVF)
03AD   0844           01102 MOVF Carry, W               ; Move the value of Carry to W register
Warning[203]: Found opcode in column 1. (ADDWF)
Message[305]: Using default destination of 1 (file).
03AE   07BD           01103 ADDWF HundredsSum      ; Add the Carry value to the sum of TensFirstNum and TensSecondNum and store the 
                            result in TensSecondNum
Warning[203]: Found opcode in column 1. (MOVF)
03AF   084F           01104 MOVF HundredsSecondNum, W
Warning[203]: Found opcode in column 1. (ADDWF)
Message[305]: Using default destination of 1 (file).
03B0   07BD           01105 ADDWF HundredsSum               ; Move the result to TensSum
Warning[203]: Found opcode in column 1. (MOVF)
03B1   083D           01106 MOVF HundredsSum,W
Warning[203]: Found opcode in column 1. (MOVWF)
03B2   00C7           01107 MOVWF HundredsSumT  ; Add the value of C1 to HundredsSum and store the result in HundredsSum
03B3   3009           01108    MOVLW 9
Message[305]: Using default destination of 1 (file).
03B4   02C7           01109    SUBWF HundredsSumT
03B5   1903           01110    BTFSC STATUS, Z
03B6   2???           01111    GOTO HundredsSumEquals9
03B7   1803           01112    BTFSC  STATUS, C   
03B8   2???           01113    GOTO HundredsSumGreaterThan9
03B9   2???           01114    GOTO HundredsSumLessThan9
                      01115 
                      01116 
Warning[207]: Found label after column 1. (HundredsSumEquals9)
03BA                  01117    HundredsSumEquals9:
Warning[203]: Found opcode in column 1. (MOVLW)
03BA   3000           01118 MOVLW 0       ; Move the value 1 to W register
Warning[203]: Found opcode in column 1. (MOVWF)
03BB   00C4           01119 MOVWF Carry   ; Store the value in the Carry variable
03BC   2???           01120   GOTO EndComparison2
                      01121 
03BD                  01122 HundredsSumGreaterThan9:
Warning[203]: Found opcode in column 1. (MOVLW)
03BD   300A           01123 MOVLW 0x0A       ; Load the immediate value 10 into the W register
Warning[203]: Found opcode in column 1. (SUBWF)
03BE   02BD           01124 SUBWF HundredsSum,F ; Subtract 10 from OnesSum and store the result in W register
Warning[203]: Found opcode in column 1. (MOVLW)
03BF   3001           01125 MOVLW 1       ; Move the value 1 to W register
Warning[203]: Found opcode in column 1. (MOVWF)
03C0   00C4           01126 MOVWF Carry   ; Store the value in the Carry variable
03C1   2???           01127   GOTO EndComparison2
                      01128 
03C2                  01129 HundredsSumLessThan9:
Warning[203]: Found opcode in column 1. (MOVLW)
03C2   3000           01130 MOVLW 0       ; Move the value 1 to W register
Warning[203]: Found opcode in column 1. (MOVWF)
MPASM  5.50                           PIC.ASM   7-27-2023  10:27:58         PAGE 32


LOC  OBJECT CODE     LINE SOURCE TEXT
  VALUE

03C3   00C4           01131 MOVWF Carry   ; Store the value in the Carry variable
03C4   2???           01132   GOTO EndComparison2
                      01133 
03C5                  01134 EndComparison2:
03C5   01BE           01135     CLRF ThousandsSum               ; Clear the sum of thousands digit
Warning[203]: Found opcode in column 1. (MOVF)
03C6   0832           01136 MOVF ThousandsFirstNum, W         ; Move TensFirstNum to W register
Warning[203]: Found opcode in column 1. (ADDWF)
Message[305]: Using default destination of 1 (file).
03C7   07BE           01137 ADDWF ThousandsSum      ; Add TensSecondNum to TensFirstNum and store the result in TensSecondNum
Warning[203]: Found opcode in column 1. (MOVF)
03C8   0844           01138 MOVF Carry, W               ; Move the value of Carry to W register
Warning[203]: Found opcode in column 1. (ADDWF)
Message[305]: Using default destination of 1 (file).
03C9   07BE           01139 ADDWF ThousandsSum      ; Add the Carry value to the sum of TensFirstNum and TensSecondNum and store the
                             result in TensSecondNum
Warning[203]: Found opcode in column 1. (MOVF)
03CA   084E           01140 MOVF ThousandsSecondNum, W   
Warning[203]: Found opcode in column 1. (ADDWF)
Message[305]: Using default destination of 1 (file).
03CB   07BE           01141 ADDWF ThousandsSum               ; Move the result to TensSum
Warning[203]: Found opcode in column 1. (MOVF)
03CC   083E           01142 MOVF ThousandsSum,W
Warning[203]: Found opcode in column 1. (MOVWF)
03CD   00C8           01143 MOVWF ThousandsSumT  ; Add the value of C1 to HundredsSum and store the result in HundredsSum
03CE   3009           01144    MOVLW 9
Message[305]: Using default destination of 1 (file).
03CF   02C8           01145    SUBWF ThousandsSumT
03D0   1903           01146    BTFSC STATUS, Z
03D1   2???           01147    GOTO ThousandsSumEquals9
03D2   1803           01148    BTFSC  STATUS, C   ;
03D3   2???           01149    GOTO ThousandsSumGreaterThan9
03D4   2???           01150    GOTO ThousandsSumLessThan9
Warning[207]: Found label after column 1. (ThousandsSumEquals9)
03D5                  01151    ThousandsSumEquals9:
Warning[203]: Found opcode in column 1. (MOVLW)
03D5   3000           01152 MOVLW 0       ; Move the value 1 to W register
Warning[203]: Found opcode in column 1. (MOVWF)
03D6   00C4           01153 MOVWF Carry   ; Store the value in the Carry variable
03D7   2???           01154   GOTO EndComparison3
                      01155 
03D8                  01156 ThousandsSumGreaterThan9:
Warning[203]: Found opcode in column 1. (MOVLW)
03D8   300A           01157 MOVLW 0x0A       ; Load the immediate value 10 into the W register
Warning[203]: Found opcode in column 1. (SUBWF)
03D9   02BE           01158 SUBWF ThousandsSum,F ; Subtract 10 from OnesSum and store the result in W register
Warning[203]: Found opcode in column 1. (MOVLW)
03DA   3001           01159 MOVLW 1       ; Move the value 1 to W register
Warning[203]: Found opcode in column 1. (MOVWF)
03DB   00C4           01160 MOVWF Carry   ; Store the value in the Carry variable
03DC   2???           01161   GOTO EndComparison3
                      01162 
03DD                  01163 ThousandsSumLessThan9:
MPASM  5.50                           PIC.ASM   7-27-2023  10:27:58         PAGE 33


LOC  OBJECT CODE     LINE SOURCE TEXT
  VALUE

Warning[203]: Found opcode in column 1. (MOVLW)
03DD   3000           01164 MOVLW 0       ; Move the value 1 to W register
Warning[203]: Found opcode in column 1. (MOVWF)
03DE   00C4           01165 MOVWF Carry   ; Store the value in the Carry variable
03DF   2???           01166   GOTO EndComparison3
                      01167 
03E0                  01168 EndComparison3:
03E0   01BF           01169     CLRF tenThousandsSum            ; Clear the sum of ten thousands digit
Warning[203]: Found opcode in column 1. (MOVF)
03E1   0831           01170 MOVF tenThousandsFirstNum, W         ; Move TensFirstNum to W register
Warning[203]: Found opcode in column 1. (ADDWF)
Message[305]: Using default destination of 1 (file).
03E2   07BF           01171 ADDWF tenThousandsSum      ; Add TensSecondNum to TensFirstNum and store the result in TensSecondNum
Warning[203]: Found opcode in column 1. (MOVF)
03E3   0844           01172 MOVF Carry, W               ; Move the value of Carry to W register
Warning[203]: Found opcode in column 1. (ADDWF)
Message[305]: Using default destination of 1 (file).
03E4   07BF           01173 ADDWF tenThousandsSum      ; Add the Carry value to the sum of TensFirstNum and TensSecondNum and store 
                            the result in TensSecondNum
Warning[203]: Found opcode in column 1. (MOVF)
03E5   084D           01174 MOVF tenThousandsSecondNum, W      
Warning[203]: Found opcode in column 1. (ADDWF)
Message[305]: Using default destination of 1 (file).
03E6   07BF           01175 ADDWF tenThousandsSum               ; Move the result to TensSum
Warning[203]: Found opcode in column 1. (MOVF)
03E7   083F           01176 MOVF tenThousandsSum,W
Warning[203]: Found opcode in column 1. (MOVWF)
03E8   00C9           01177 MOVWF tenThousandsSumT  ; Add the value of C1 to HundredsSum and store the result in HundredsSum
03E9   3009           01178    MOVLW 9
Message[305]: Using default destination of 1 (file).
03EA   02C9           01179    SUBWF tenThousandsSumT
03EB   1903           01180    BTFSC STATUS, Z
03EC   2???           01181    GOTO tenThousandsSumEquals9
03ED   1803           01182    BTFSC  STATUS, C   ;
03EE   2???           01183    GOTO tenThousandsSumSumGreaterThan9
03EF   2???           01184    GOTO tenThousandsSumSumLessThan9
Warning[207]: Found label after column 1. (tenThousandsSumEquals9)
03F0                  01185    tenThousandsSumEquals9:
Warning[203]: Found opcode in column 1. (MOVLW)
03F0   3000           01186 MOVLW 0       ; Move the value 1 to W register
Warning[203]: Found opcode in column 1. (MOVWF)
03F1   00C4           01187 MOVWF Carry   ; Store the value in the Carry variable
03F2   2???           01188   GOTO EndComparison4
                      01189 
03F3                  01190 tenThousandsSumSumGreaterThan9:
Warning[203]: Found opcode in column 1. (MOVLW)
03F3   300A           01191 MOVLW 0x0A       ; Load the immediate value 10 into the W register
Warning[203]: Found opcode in column 1. (SUBWF)
03F4   02BF           01192 SUBWF tenThousandsSum,F ; Subtract 10 from OnesSum and store the result in W register
Warning[203]: Found opcode in column 1. (MOVLW)
03F5   3001           01193 MOVLW 1       ; Move the value 1 to W register
Warning[203]: Found opcode in column 1. (MOVWF)
03F6   00C4           01194 MOVWF Carry   ; Store the value in the Carry variable
MPASM  5.50                           PIC.ASM   7-27-2023  10:27:58         PAGE 34


LOC  OBJECT CODE     LINE SOURCE TEXT
  VALUE

03F7   2???           01195   GOTO EndComparison4
03F8                  01196 tenThousandsSumSumLessThan9:
Warning[203]: Found opcode in column 1. (MOVLW)
03F8   3000           01197 MOVLW 0       ; Move the value 1 to W register
Warning[203]: Found opcode in column 1. (MOVWF)
03F9   00C4           01198 MOVWF Carry   ; Store the value in the Carry variable
03FA   2???           01199   GOTO EndComparison4
03FB                  01200 EndComparison4:
03FB   2???           01201     CALL xms                         ; Delay for initialization
03FC   2???           01202     CALL xms
03FD   2???           01203     CALL inid                        ; Initialize the LCD display
03FE   1274           01204     BCF Select, RS
                      01205     ; Send the ASCII code for 'h' to display the character
                      01206     ; Set cursor to the first line, first position (address 0x00)
03FF   3080           01207     MOVLW 0x80
0400   2???           01208     CALL send                        ; Send command to set cursor position
0401   1674           01209     BSF Select, RS
                      01210     ; Send the ASCII code for 'E' to display the character
0402   3052           01211     MOVLW 'R'
0403   2???           01212     CALL send
                      01213     ; Send the ASCII code for 'n' to display the character
0404   3065           01214     MOVLW 'e'
0405   2???           01215     CALL send
                      01216     ; Send the ASCII code for 't' to display the character
0406   3073           01217     MOVLW 's'
0407   2???           01218     CALL send
                      01219     ; Send the ASCII code for 'e' to display the character
0408   3075           01220     MOVLW 'u'
0409   2???           01221     CALL send
040A   306C           01222     MOVLW 'l'
040B   2???           01223     CALL send
                      01224     ; Send the ASCII code for ' ' to display the character
040C   3074           01225     MOVLW 't'
040D   2???           01226     CALL send   
Warning[203]: Found opcode in column 1. (BCF)
040E   1274           01227 BCF Select, RS
                      01228 
                      01229     ; Send the ASCII code for 'h' to display the character
                      01230     ; Set cursor to the first line, first position (address 0x00)
040F   30C0           01231     MOVLW 0xC0
0410   2???           01232     CALL send                        ; Send command to set cursor position
0411   1674           01233     BSF Select, RS
0412   303D           01234     MOVLW '='
0413   2???           01235     CALL send
0414   0844           01236     MOVF Carry, W                  ; Load counter value into W register
0415   2???           01237     CALL numToASCII                  ; Convert the counter value to ASCII
0416   2???           01238     CALL send  
0417   083F           01239     MOVF tenThousandsSum, W                  ; Load counter value into W register
0418   2???           01240     CALL numToASCII                  ; Convert the counter value to ASCII
0419   2???           01241     CALL send                        ; Send the ASCII character to the LCD display
041A   083E           01242     MOVF ThousandsSum, W                  ; Load counter value into W register
041B   2???           01243     CALL numToASCII                  ; Convert the counter value to ASCII
041C   2???           01244     CALL send  
MPASM  5.50                           PIC.ASM   7-27-2023  10:27:58         PAGE 35


LOC  OBJECT CODE     LINE SOURCE TEXT
  VALUE

041D   083D           01245     MOVF HundredsSum, W                  ; Load counter value into W register
041E   2???           01246     CALL numToASCII                  ; Convert the counter value to ASCII
041F   2???           01247     CALL send  
0420   083C           01248     MOVF TensSum, W                  ; Load counter value into W register
0421   2???           01249     CALL numToASCII                  ; Convert the counter value to ASCII
0422   2???           01250     CALL send
0423   083B           01251     MOVF OnesSum, W                  ; Load counter value into W register
0424   2???           01252     CALL numToASCII                  ; Convert the counter value to ASCII
0425   2???           01253     CALL send
Warning[203]: Found opcode in column 1. (GOTO)
0426   2???           01254 GOTO SingleDouble
                      01255 
                      01256 
                      01257 
0427                  01258 division:
Warning[203]: Found opcode in column 1. (CLRF)
0427   01DA           01259 CLRF RemainderL
Warning[203]: Found opcode in column 1. (CLRF)
0428   01DB           01260 CLRF RemainderH 
Warning[203]: Found opcode in column 1. (CLRF)
0429   01D7           01261 CLRF IDX16 
Warning[203]: Found opcode in column 1. (CLRF)
042A   01D8           01262 CLRF IDX16_H 
Warning[203]: Found opcode in column 1. (CLRF)
042B   01D9           01263 CLRF TEMPYY 
Warning[203]: Found opcode in column 1. (CLRF)
042C   01B6           01264 CLRF FirstNumL
Warning[203]: Found opcode in column 1. (CLRF)
042D   01B7           01265 CLRF FirstNumH
Warning[203]: Found opcode in column 1. (CLRF)
042E   01B8           01266 CLRF SecondNumL
Warning[203]: Found opcode in column 1. (CLRF)
042F   01B9           01267 CLRF SecondNumH
Warning[203]: Found opcode in column 1. (MOVLW)
0430   302F           01268 MOVLW '/'
Warning[203]: Found opcode in column 1. (XORWF)
0431   0626           01269 XORWF savedSymbol, W        ; Compare savedSymbol with '/'
Warning[203]: Found opcode in column 1. (BTFSS)
0432   1D03           01270 BTFSS STATUS, Z             ; Branch if not zero (savedSymbol != '/')
Warning[203]: Found opcode in column 1. (goto)
0433   2???           01271 goto MOD
                      01272 
0434                  01273 converting:
Warning[203]: Found opcode in column 1. (MOVF)
0434   0831           01274 MOVF tenThousandsFirstNum,W
Warning[203]: Found opcode in column 1. (MOVWF)
0435   00CA           01275 MOVWF counter1
                      01276 
Warning[203]: Found opcode in column 1. (MOVLW)
0436   3000           01277 MOVLW 0
0437   0631           01278     XORWF tenThousandsFirstNum, W
0438   1903           01279     BTFSC STATUS,Z
0439   2???           01280     GOTO ENFTT 
MPASM  5.50                           PIC.ASM   7-27-2023  10:27:58         PAGE 36


LOC  OBJECT CODE     LINE SOURCE TEXT
  VALUE

                      01281 
043A                  01282 OuterLoopFTT:
Warning[203]: Found opcode in column 1. (MOVLW)
043A   3000           01283 MOVLW 0
043B   064A           01284     XORWF counter1, W
043C   1903           01285     BTFSC STATUS,Z
043D   2???           01286     GOTO ENFTT 
043E   3064           01287     movlw 0x64
043F   00CB           01288     movwf counter2
                      01289 
0440                  01290 InnerLoopF1TT:
                      01291 
0440   3064           01292     movlw 0x64
0441   00CC           01293     movwf counter3
                      01294 
0442                  01295 InnerLoopF2TT:
Message[305]: Using default destination of 1 (file).
0442   0AB6           01296   incf   FirstNumL                      ;  Increment the Lower Byte
0443   1903           01297   btfsc  STATUS, Z              ;  If the Zero Flag is Set
Message[305]: Using default destination of 1 (file).
0444   0AB7           01298    incf  FirstNumH                  ;   Increment the Upper Byte
                      01299 
                      01300     ; Decrement counter3
Message[305]: Using default destination of 1 (file).
0445   0BCC           01301     decfSZ counter3
0446   2???           01302     goto InnerLoopF2TT ; Repeat the third loop if counter3 is not zero
                      01303 
                      01304     ; Decrement counter2
0447   0BCB           01305     decfSZ counter2,F
0448   2???           01306     goto InnerLoopF1TT ; Repeat the second loop if counter2 is not zero
                      01307 
                      01308     ; Decrement counter1
0449   0BCA           01309     decFSZ counter1,F
044A   2???           01310     goto OuterLoopFTT ; Repeat the outermost loop if counter1 is not zero
                      01311 
                      01312     
                      01313 
                      01314 
                      01315 ;; ten thousands second num
                      01316 
044B                  01317 ENFTT:
Warning[203]: Found opcode in column 1. (CALL)
044B   2???           01318 CALL ClearLoopCounters
Warning[203]: Found opcode in column 1. (MOVF)
044C   084D           01319 MOVF tenThousandsSecondNum,W
Warning[203]: Found opcode in column 1. (MOVWF)
044D   00CA           01320 MOVWF counter1
                      01321 
Warning[203]: Found opcode in column 1. (MOVLW)
044E   3000           01322 MOVLW 0
044F   064D           01323     XORWF tenThousandsSecondNum, W
0450   1903           01324     BTFSC STATUS,Z
0451   2???           01325     GOTO ENSTT 
MPASM  5.50                           PIC.ASM   7-27-2023  10:27:58         PAGE 37


LOC  OBJECT CODE     LINE SOURCE TEXT
  VALUE

                      01326 
0452                  01327 OuterLoopSTT:
Warning[203]: Found opcode in column 1. (MOVLW)
0452   3000           01328 MOVLW 0
0453   064A           01329     XORWF counter1, W
0454   1903           01330     BTFSC STATUS,Z
0455   2???           01331     GOTO ENSTT 
0456   3064           01332     movlw 0x64
0457   00CB           01333     movwf counter2
                      01334 
0458                  01335 InnerLoopS1TT:
                      01336 
0458   3064           01337     movlw 0x64
0459   00CC           01338     movwf counter3
                      01339 
045A                  01340 InnerLoopS2TT:
Message[305]: Using default destination of 1 (file).
045A   0AB8           01341   incf   SecondNumL                      ;  Increment the Lower Byte
045B   1903           01342   btfsc  STATUS, Z              ;  If the Zero Flag is Set
Message[305]: Using default destination of 1 (file).
045C   0AB9           01343    incf  SecondNumH                  ;   Increment the Upper Byte
                      01344 
                      01345     ; Decrement counter3
Message[305]: Using default destination of 1 (file).
045D   0BCC           01346     decfSZ counter3
045E   2???           01347     goto InnerLoopS2TT ; Repeat the third loop if counter3 is not zero
                      01348 
                      01349     ; Decrement counter2
045F   0BCB           01350     decfSZ counter2,F
0460   2???           01351     goto InnerLoopS1TT ; Repeat the second loop if counter2 is not zero
                      01352 
                      01353     ; Decrement counter1
0461   0BCA           01354     decFSZ counter1,F
0462   2???           01355     goto OuterLoopSTT ; Repeat the outermost loop if counter1 is not zero
                      01356 
                      01357     
                      01358 
                      01359     
                      01360 ; tenthousands lopp both numbers end here
0463                  01361 ENSTT:   
Warning[203]: Found opcode in column 1. (CALL)
0463   2???           01362 CALL ClearLoopCounters
0464   3000           01363     movlw 0x00
0465   0632           01364     XORWF ThousandsFirstNum, W
0466   1903           01365     BTFSC STATUS,Z
0467   2???           01366     GOTO ENFTH
0468   0832           01367     MOVF ThousandsFirstNum,W
0469   00CA           01368     MOVWF counter1
                      01369 
046A                  01370 OuterLoopFTH:
                      01371 
Warning[203]: Found opcode in column 1. (MOVLW)
046A   3000           01372 MOVLW 0
MPASM  5.50                           PIC.ASM   7-27-2023  10:27:58         PAGE 38


LOC  OBJECT CODE     LINE SOURCE TEXT
  VALUE

046B   064A           01373     XORWF counter1, W
046C   1903           01374     BTFSC STATUS,Z
046D   2???           01375     GOTO ENFTH 
046E   300A           01376     movlw 0x0A
046F   00CB           01377     movwf counter2
                      01378 
0470                  01379 InnerLoopF1TH:
                      01380 
0470   3064           01381     movlw 0x64
0471   00CC           01382     movwf counter3
                      01383 
0472                  01384 InnerLoopF2TH:
Message[305]: Using default destination of 1 (file).
0472   0AB6           01385   incf   FirstNumL                     ;  Increment the Lower Byte
0473   1903           01386   btfsc  STATUS, Z              ;  If the Zero Flag is Set
Message[305]: Using default destination of 1 (file).
0474   0AB7           01387    incf  FirstNumH                  ;   Increment the Upper Byte
                      01388 
                      01389     ; Decrement counter3
0475   0BCC           01390     decfsz counter3, F
0476   2???           01391     goto InnerLoopF2TH ; Repeat the third loop if counter3 is not zero
                      01392 
                      01393     ; Decrement counter2
0477   0BCB           01394     decfsz counter2, F
0478   2???           01395     goto InnerLoopF1TH ; Repeat the second loop if counter2 is not zero
                      01396 
                      01397     ; Decrement counter1
0479   0BCA           01398     decfsz counter1, F
047A   2???           01399     goto OuterLoopFTH ; Repeat the outermost loop if counter1 is not zero
                      01400 
047B                  01401 ENFTH:
                      01402 
Warning[203]: Found opcode in column 1. (CALL)
047B   2???           01403 CALL ClearLoopCounters
047C   3000           01404     movlw 0x00
047D   064E           01405     XORWF ThousandsSecondNum, W
047E   1903           01406     BTFSC STATUS,Z
047F   2???           01407     GOTO ENSTH
0480   084E           01408     MOVF ThousandsSecondNum,W
0481   00CA           01409     MOVWF counter1
                      01410 
0482                  01411 OuterLoopSTH:
0482   3000           01412         MOVLW 0
0483   064A           01413     XORWF counter1, W
0484   1903           01414     BTFSC STATUS,Z
0485   2???           01415     GOTO ENSTH 
0486   300A           01416     movlw 0x0A
0487   00CB           01417     movwf counter2
                      01418 
0488                  01419 InnerLoopS1TH:
                      01420 
0488   3064           01421     movlw 0x64
0489   00CC           01422     movwf counter3
MPASM  5.50                           PIC.ASM   7-27-2023  10:27:58         PAGE 39


LOC  OBJECT CODE     LINE SOURCE TEXT
  VALUE

                      01423 
048A                  01424 InnerLoopS2TH:
Message[305]: Using default destination of 1 (file).
048A   0AB8           01425   incf   SecondNumL                      ;  Increment the Lower Byte
048B   1903           01426   btfsc  STATUS, Z              ;  If the Zero Flag is Set
Message[305]: Using default destination of 1 (file).
048C   0AB9           01427    incf  SecondNumH                  ;   Increment the Upper Byte
                      01428 
                      01429     ; Decrement counter3
048D   0BCC           01430     decfsz counter3, F
048E   2???           01431     goto InnerLoopS2TH ; Repeat the third loop if counter3 is not zero
                      01432 
                      01433     ; Decrement counter2
048F   0BCB           01434     decfsz counter2, F
0490   2???           01435     goto InnerLoopS1TH 
                      01436 
                      01437     ; Decrement counter1
0491   0BCA           01438     decfsz counter1, F
0492   2???           01439     goto OuterLoopSTH 
                      01440 
                      01441 ;;;;; thousnads both ends ere;;;;
0493                  01442 ENSTH:
Warning[203]: Found opcode in column 1. (CALL)
0493   2???           01443 CALL ClearLoopCounters
0494   3000           01444     movlw 0x00
0495   0633           01445     XORWF HundredsFirstNum, W
0496   1903           01446     BTFSC STATUS,Z
0497   2???           01447     GOTO ENFH
0498   0833           01448     MOVF HundredsFirstNum,W
0499   00CA           01449     MOVWF counter1
                      01450 
049A                  01451 OuterLoopFH:
049A   3000           01452         MOVLW 0
049B   064A           01453     XORWF counter1, W
049C   1903           01454     BTFSC STATUS,Z
049D   2???           01455     GOTO ENFH 
049E   3064           01456     movlw 0x64
049F   00CB           01457     movwf counter2
                      01458 
04A0                  01459 InnerLoopFH:
Message[305]: Using default destination of 1 (file).
04A0   0AB6           01460   incf   FirstNumL                      ;  Increment the Lower Byte
04A1   1903           01461   btfsc  STATUS, Z              ;  If the Zero Flag is Set
Message[305]: Using default destination of 1 (file).
04A2   0AB7           01462    incf  FirstNumH                  ;   Increment the Upper Byte
                      01463    
04A3   0BCB           01464     decfsz counter2, F
04A4   2???           01465     goto InnerLoopFH ; Repeat the inner loop if counter2 is not zero
                      01466 
                      01467     ; Decrement counter1
04A5   0BCA           01468     decfsz counter1, F
04A6   2???           01469     goto OuterLoopFH ; Repeat the outer loop if counter1 is not zero
                      01470 
MPASM  5.50                           PIC.ASM   7-27-2023  10:27:58         PAGE 40


LOC  OBJECT CODE     LINE SOURCE TEXT
  VALUE

04A7                  01471 ENFH:
                      01472 
                      01473 
                      01474 
Warning[203]: Found opcode in column 1. (CALL)
04A7   2???           01475 CALL ClearLoopCounters
04A8   3000           01476     movlw 0x00
04A9   064F           01477     XORWF HundredsSecondNum, W
04AA   1903           01478     BTFSC STATUS,Z
04AB   2???           01479     GOTO ENSH
04AC   084F           01480     MOVF HundredsSecondNum,W
04AD   00CA           01481     MOVWF counter1
                      01482 
04AE                  01483 OuterLoopSH:
04AE   3000           01484         MOVLW 0
04AF   064A           01485     XORWF counter1, W
04B0   1903           01486     BTFSC STATUS,Z
04B1   2???           01487     GOTO ENSH 
04B2   3064           01488     movlw 0x64
04B3   00CB           01489     movwf counter2
                      01490 
04B4                  01491 InnerLoopSH:
Message[305]: Using default destination of 1 (file).
04B4   0AB8           01492   incf   SecondNumL                      ;  Increment the Lower Byte
04B5   1903           01493   btfsc  STATUS, Z              ;  If the Zero Flag is Set
Message[305]: Using default destination of 1 (file).
04B6   0AB9           01494    incf  SecondNumH                  ;   Increment the Upper Byte
                      01495    
04B7   0BCB           01496     decfsz counter2, F
04B8   2???           01497     goto InnerLoopSH ; Repeat the inner loop if counter2 is not zero
                      01498 
                      01499     ; Decrement counter1
04B9   0BCA           01500     decfsz counter1, F
04BA   2???           01501     goto OuterLoopSH ; Repeat the outer loop if counter1 is not zero
                      01502  
04BB                  01503 ENSH:
                      01504 
Warning[203]: Found opcode in column 1. (CALL)
04BB   2???           01505 CALL ClearLoopCounters
04BC   3000           01506     movlw 0x00
04BD   0634           01507     XORWF TensFirstNum, W
04BE   1903           01508     BTFSC STATUS,Z
04BF   2???           01509     GOTO ENFTE
04C0   0834           01510     MOVF TensFirstNum,W
04C1   00CA           01511         MOVWF counter1
04C2                  01512 OuterLoopFT:
04C2   3000           01513         MOVLW 0
04C3   064A           01514     XORWF counter1, W
04C4   1903           01515     BTFSC STATUS,Z
04C5   2???           01516     GOTO ENFTE 
04C6   300A           01517     movlw 0x0A
04C7   00CB           01518     movwf counter2
                      01519 
MPASM  5.50                           PIC.ASM   7-27-2023  10:27:58         PAGE 41


LOC  OBJECT CODE     LINE SOURCE TEXT
  VALUE

04C8                  01520 InnerLoopFT:
Message[305]: Using default destination of 1 (file).
04C8   0AB6           01521   incf   FirstNumL                      ;  Increment the Lower Byte
04C9   1903           01522   btfsc  STATUS, Z              ;  If the Zero Flag is Set
Message[305]: Using default destination of 1 (file).
04CA   0AB7           01523    incf  FirstNumH                  ;   Increment the Upper Byte
                      01524    
04CB   0BCB           01525     decfsz counter2, F
04CC   2???           01526     goto InnerLoopFT ; Repeat the inner loop if counter2 is not zero
                      01527 
                      01528     ; Decrement counter1
04CD   0BCA           01529     decfsz counter1, F
04CE   2???           01530     goto OuterLoopFT ; Repeat the outer loop if counter1 is not zero
04CF                  01531 ENFTE:
                      01532     
                      01533     
                      01534 
Warning[203]: Found opcode in column 1. (CALL)
04CF   2???           01535 CALL ClearLoopCounters
04D0   3000           01536     movlw 0x00
04D1   0650           01537     XORWF TensSecondNum, W
04D2   1903           01538     BTFSC STATUS,Z
04D3   2???           01539     GOTO ENSTE
04D4   0850           01540     MOVF TensSecondNum,W
04D5   00CA           01541         MOVWF counter1
04D6                  01542 OuterLoopST:
04D6   3000           01543         MOVLW 0
04D7   064A           01544     XORWF counter1, W
04D8   1903           01545     BTFSC STATUS,Z
04D9   2???           01546     GOTO ENSTE 
04DA   300A           01547     movlw 0x0A
04DB   00CB           01548     movwf counter2
                      01549 
04DC                  01550 InnerLoopST:
Message[305]: Using default destination of 1 (file).
04DC   0AB8           01551   incf   SecondNumL                      ;  Increment the Lower Byte
04DD   1903           01552   btfsc  STATUS, Z              ;  If the Zero Flag is Set
Message[305]: Using default destination of 1 (file).
04DE   0AB9           01553    incf  SecondNumH                  ;   Increment the Upper Byte
                      01554    
04DF   0BCB           01555     decfsz counter2, F
04E0   2???           01556     goto InnerLoopST ; Repeat the inner loop if counter2 is not zero
                      01557 
                      01558     ; Decrement counter1
04E1   0BCA           01559     decfsz counter1, F
04E2   2???           01560     goto OuterLoopST ; Repeat the outer loop if counter1 is not zero
04E3                  01561 ENSTE:
Warning[203]: Found opcode in column 1. (CALL)
04E3   2???           01562 CALL ClearLoopCounters
04E4   3000           01563     movlw 0x00
04E5   0635           01564     XORWF OnesFirstNum, W
04E6   1903           01565     BTFSC STATUS,Z
04E7   2???           01566     GOTO ENFO
MPASM  5.50                           PIC.ASM   7-27-2023  10:27:58         PAGE 42


LOC  OBJECT CODE     LINE SOURCE TEXT
  VALUE

04E8   0835           01567     MOVF OnesFirstNum,W
04E9   00CA           01568     MOVWF counter1
04EA                  01569 LoopFO:
04EA   3000           01570         MOVLW 0
04EB   064A           01571     XORWF counter1, W
04EC   1903           01572     BTFSC STATUS,Z
04ED   2???           01573     GOTO ENFTT 
Message[305]: Using default destination of 1 (file).
04EE   0AB6           01574   incf   FirstNumL                      ;  Increment the Lower Byte
04EF   1903           01575   btfsc  STATUS, Z              ;  If the Zero Flag is Set
Message[305]: Using default destination of 1 (file).
04F0   0AB7           01576    incf  FirstNumH                  ;   Increment the Upper Byte
                      01577    
04F1   0BCA           01578     decfsz counter1, F
04F2   2???           01579     goto LoopFO ; Repeat the loop if counter is not zero
04F3                  01580 ENFO:
Warning[203]: Found opcode in column 1. (CALL)
04F3   2???           01581 CALL ClearLoopCounters
04F4   3000           01582     movlw 0x00
04F5   0651           01583     XORWF OnesSecondNum, W
04F6   1903           01584     BTFSC STATUS,Z
04F7   2???           01585     GOTO ENSO
04F8   0851           01586     MOVF OnesSecondNum,W
04F9   00CA           01587     MOVWF counter1
04FA                  01588 LoopSO:
04FA   3000           01589         MOVLW 0
04FB   064A           01590     XORWF counter1, W
04FC   1903           01591     BTFSC STATUS,Z
04FD   2???           01592     GOTO ENFTT 
Message[305]: Using default destination of 1 (file).
04FE   0AB8           01593   incf   SecondNumL                      ;  Increment the Lower Byte
04FF   1903           01594   btfsc  STATUS, Z              ;  If the Zero Flag is Set
Message[305]: Using default destination of 1 (file).
0500   0AB9           01595    incf  SecondNumH                  ;   Increment the Upper Byte
                      01596    
0501   0BCA           01597     decfsz counter1, F
0502   2???           01598     goto LoopSO ; Repeat the loop if counter is not zero
0503                  01599 ENSO:
                      01600 
0503                  01601 DIVV16
0503   08B8           01602         MOVF SecondNumL,F
0504   1D03           01603         BTFSS  STATUS,Z
0505   2???           01604         GOTO  ZERO_TEST_SKIPPED
0506   08B9           01605         MOVF SecondNumH,F
0507   1D03           01606         BTFSS STATUS,Z
0508   2???           01607         GOTO  ZERO_TEST_SKIPPED
0509   2???           01608     CALL xms                      
050A   2???           01609     CALL xms
050B   2???           01610     CALL inid                      
050C   1274           01611     BCF Select, RS
050D   3080           01612     MOVLW 0x80
050E   2???           01613     CALL send
050F   1674           01614     BSF Select, RS
MPASM  5.50                           PIC.ASM   7-27-2023  10:27:58         PAGE 43


LOC  OBJECT CODE     LINE SOURCE TEXT
  VALUE

Warning[203]: Found opcode in column 1. (CALL)
0510   2???           01615 CALL PrintErr
0511   2???           01616     CALL xms                         ; Delay for initialization
0512   2???           01617     CALL xms
Warning[203]: Found opcode in column 1. (GOTO)
0513   2???           01618 GOTO init
0514                  01619 ZERO_TEST_SKIPPED
0514   3001           01620         MOVLW   1
0515   00D7           01621         MOVWF   IDX16
0516   01D8           01622         CLRF    IDX16_H
0517   01C2           01623         CLRF    Quotient
0518   01C3           01624         CLRF    Quotient1
0519                  01625 SHIFT_IT16
0519   1BB9           01626         BTFSC   SecondNumH,7
051A   2???           01627         GOTO    DIVU16LOOP
051B   1003           01628         BCF     STATUS,C
051C   0DD7           01629         RLF     IDX16,F
051D   0DD8           01630         RLF     IDX16_H,F
051E   1003           01631         BCF     STATUS,C
051F   0DB8           01632         RLF     SecondNumL,F
0520   0DB9           01633         RLF     SecondNumH,F
0521   2???           01634         GOTO    SHIFT_IT16
0522                  01635 DIVU16LOOP
                      01636 
                      01637 
0522   0839           01638         MOVF    SecondNumH,W
0523   00D9           01639         MOVWF   TEMPYY
0524   0838           01640         MOVF    SecondNumL,W
Message[305]: Using default destination of 1 (file).
0525   02B6           01641         SUBWF   FirstNumL
0526   1C03           01642         BTFSS   STATUS,C
0527   0AD9           01643         INCF    TEMPYY,F
0528   0859           01644         MOVF    TEMPYY,W
Message[305]: Using default destination of 1 (file).
0529   02B7           01645         SUBWF   FirstNumH
                      01646 
                      01647 
052A   1803           01648         BTFSC   STATUS,C
052B   2???           01649         GOTO    COUNTX
052C   0838           01650         MOVF    SecondNumL,W
Message[305]: Using default destination of 1 (file).
052D   07B6           01651         ADDWF   FirstNumL
052E   1803           01652         BTFSC   STATUS,C
052F   0AB7           01653         INCF    FirstNumH,F
0530   0839           01654         MOVF    SecondNumH,W
Message[305]: Using default destination of 1 (file).
0531   07B7           01655         ADDWF   FirstNumH
0532   2???           01656         GOTO    FINALX
0533                  01657 COUNTX
0533   0857           01658         MOVF    IDX16,W
Message[305]: Using default destination of 1 (file).
0534   07C2           01659         ADDWF   Quotient
0535   1803           01660         BTFSC   STATUS,C
MPASM  5.50                           PIC.ASM   7-27-2023  10:27:58         PAGE 44


LOC  OBJECT CODE     LINE SOURCE TEXT
  VALUE

0536   0AC3           01661         INCF    Quotient1,F
0537   0858           01662         MOVF    IDX16_H,W
Message[305]: Using default destination of 1 (file).
0538   07C3           01663         ADDWF   Quotient1
0539                  01664 FINALX
                      01665 
0539   1003           01666         BCF     STATUS,C
053A   0CB9           01667         RRF     SecondNumH,F
053B   0CB8           01668         RRF     SecondNumL,F
053C   1003           01669         BCF     STATUS,C
053D   0CD8           01670         RRF     IDX16_H,F
053E   0CD7           01671         RRF     IDX16,F
053F   1C03           01672         BTFSS   STATUS,C
0540   2???           01673         GOTO    DIVU16LOOP
                      01674 
0541                  01675 END_DIV:
Warning[203]: Found opcode in column 1. (MOVF)
0541   0837           01676 MOVF FirstNumH, W
Warning[203]: Found opcode in column 1. (MOVWF)
0542   00DB           01677 MOVWF RemainderH
Warning[203]: Found opcode in column 1. (MOVF)
0543   0836           01678 MOVF FirstNumL,W
Warning[203]: Found opcode in column 1. (MOVWF)
0544   00DA           01679 MOVWF RemainderL
Warning[203]: Found opcode in column 1. (MOVLW)
0545   300A           01680 MOVLW 0x0A
Warning[203]: Found opcode in column 1. (MOVWF)
0546   00DC           01681 MOVWF TenNum
Warning[203]: Found opcode in column 1. (CLRF)
0547   01D9           01682 CLRF TEMPYY 
                      01683 
Warning[203]: Found opcode in column 1. (MOVLW)
0548   302F           01684 MOVLW '/'
Warning[203]: Found opcode in column 1. (XORWF)
0549   0626           01685 XORWF savedSymbol, W        ; Compare savedSymbol with '/'
Warning[203]: Found opcode in column 1. (BTFSS)
054A   1D03           01686 BTFSS STATUS, Z             ; Branch if not zero (savedSymbol != '/')
Warning[203]: Found opcode in column 1. (goto)
054B   2???           01687 goto convertingAndDivisionDone
                      01688 
                      01689 ;;;;;;;;;;;;;;;;;;;;;;;;;getting digits ones;;;;;
054C                  01690 DIVV161
054C                  01691 ZERO_TEST_SKIPPED1
Warning[203]: Found opcode in column 1. (CLRF)
054C   01E3           01692 CLRF QuotientF
Warning[203]: Found opcode in column 1. (CLRF)
054D   01E4           01693 CLRF QuotientF1
Warning[203]: Found opcode in column 1. (CLRF)
054E   01D9           01694 CLRF TEMPYY
054F   3001           01695         MOVLW   1
0550   00D7           01696         MOVWF   IDX16
0551   01D8           01697         CLRF    IDX16_H
                      01698 
MPASM  5.50                           PIC.ASM   7-27-2023  10:27:58         PAGE 45


LOC  OBJECT CODE     LINE SOURCE TEXT
  VALUE

0552                  01699 SHIFT_IT161
0552   1BDD           01700         BTFSC   ZeroNum,7
0553   2???           01701         GOTO    DIVU16LOOP1
0554   1003           01702         BCF     STATUS,C
0555   0DD7           01703         RLF     IDX16,F
0556   0DD8           01704         RLF     IDX16_H,F
0557   1003           01705         BCF     STATUS,C
0558   0DDC           01706         RLF     TenNum,F
0559   0DDD           01707         RLF     ZeroNum,F
055A   2???           01708         GOTO    SHIFT_IT161
055B                  01709 DIVU16LOOP1
                      01710 
                      01711 
055B   085D           01712         MOVF    ZeroNum,W
055C   00D9           01713         MOVWF   TEMPYY
055D   085C           01714         MOVF    TenNum,W
Message[305]: Using default destination of 1 (file).
055E   02C2           01715         SUBWF   Quotient
055F   1C03           01716         BTFSS   STATUS,C
0560   0AD9           01717         INCF    TEMPYY,F
0561   0859           01718         MOVF    TEMPYY,W
Message[305]: Using default destination of 1 (file).
0562   02C3           01719         SUBWF   Quotient1
                      01720 
                      01721 
0563   1803           01722         BTFSC   STATUS,C
0564   2???           01723         GOTO    COUNTX1
0565   085C           01724         MOVF    TenNum,W
Message[305]: Using default destination of 1 (file).
0566   07C2           01725         ADDWF   Quotient
0567   1803           01726         BTFSC   STATUS,C
0568   0AC3           01727         INCF    Quotient1,F
0569   085D           01728         MOVF    ZeroNum,W
Message[305]: Using default destination of 1 (file).
056A   07C3           01729         ADDWF   Quotient1
056B   2???           01730         GOTO    FINALX1
056C                  01731 COUNTX1
056C   0857           01732         MOVF    IDX16,W
Message[305]: Using default destination of 1 (file).
056D   07E3           01733         ADDWF   QuotientF
056E   1803           01734         BTFSC   STATUS,C
056F   0AE4           01735         INCF    QuotientF1,F
0570   0858           01736         MOVF    IDX16_H,W
Message[305]: Using default destination of 1 (file).
0571   07E4           01737         ADDWF   QuotientF1
0572                  01738 FINALX1
                      01739 
0572   1003           01740         BCF     STATUS,C
0573   0CDD           01741         RRF     ZeroNum,F
0574   0CDC           01742         RRF     TenNum,F
0575   1003           01743         BCF     STATUS,C
0576   0CD8           01744         RRF     IDX16_H,F
0577   0CD7           01745         RRF     IDX16,F
MPASM  5.50                           PIC.ASM   7-27-2023  10:27:58         PAGE 46


LOC  OBJECT CODE     LINE SOURCE TEXT
  VALUE

0578   1C03           01746         BTFSS   STATUS,C
0579   2???           01747         GOTO    DIVU16LOOP1
                      01748 
057A                  01749 END_DIV1:
Warning[203]: Found opcode in column 1. (MOVF)
057A   0842           01750 MOVF Quotient,W
Warning[203]: Found opcode in column 1. (MOVWF)
057B   00E2           01751 MOVWF DivOnes
Warning[203]: Found opcode in column 1. (MOVF)
057C   0863           01752 MOVF QuotientF,W
Warning[203]: Found opcode in column 1. (MOVWF)
057D   00C2           01753 MOVWF Quotient
Warning[203]: Found opcode in column 1. (MOVF)
057E   0864           01754 MOVF QuotientF1,W
Warning[203]: Found opcode in column 1. (MOVWF)
057F   00C3           01755 MOVWF Quotient1
                      01756 ;;;;;;;;;;;;;;;;;;;;;;;;;;;;;;;;;div tens digit
                      01757 
                      01758 
0580                  01759 DIVV162
Warning[203]: Found opcode in column 1. (MOVLW)
0580   300A           01760 MOVLW 0x0A
Warning[203]: Found opcode in column 1. (MOVWF)
0581   00DC           01761 MOVWF TenNum
Warning[203]: Found opcode in column 1. (CLRF)
0582   01E3           01762 CLRF QuotientF
Warning[203]: Found opcode in column 1. (CLRF)
0583   01E4           01763 CLRF QuotientF1
Warning[203]: Found opcode in column 1. (CLRF)
0584   01D9           01764 CLRF TEMPYY
0585   3001           01765         MOVLW   1
0586   00D7           01766         MOVWF   IDX16
0587   01D8           01767         CLRF    IDX16_H
                      01768 
0588                  01769 SHIFT_IT162:
0588   1BDD           01770         BTFSC   ZeroNum,7
0589   2???           01771         GOTO    DIVU16LOOP2
058A   1003           01772         BCF     STATUS,C
058B   0DD7           01773         RLF     IDX16,F
058C   0DD8           01774         RLF     IDX16_H,F
058D   1003           01775         BCF     STATUS,C
058E   0DDC           01776         RLF     TenNum,F
058F   0DDD           01777         RLF     ZeroNum,F
0590   2???           01778         GOTO    SHIFT_IT162
0591                  01779 DIVU16LOOP2:
                      01780 
                      01781 
0591   085D           01782         MOVF    ZeroNum,W
0592   00D9           01783         MOVWF   TEMPYY
0593   085C           01784         MOVF    TenNum,W
Message[305]: Using default destination of 1 (file).
0594   02C2           01785         SUBWF   Quotient
0595   1C03           01786         BTFSS   STATUS,C
MPASM  5.50                           PIC.ASM   7-27-2023  10:27:58         PAGE 47


LOC  OBJECT CODE     LINE SOURCE TEXT
  VALUE

0596   0AD9           01787         INCF    TEMPYY,F
0597   0859           01788         MOVF    TEMPYY,W
Message[305]: Using default destination of 1 (file).
0598   02C3           01789         SUBWF   Quotient1
                      01790 
                      01791 
0599   1803           01792         BTFSC   STATUS,C
059A   2???           01793         GOTO    COUNTX2
059B   085C           01794         MOVF    TenNum,W
Message[305]: Using default destination of 1 (file).
059C   07C2           01795         ADDWF   Quotient
059D   1803           01796         BTFSC   STATUS,C
059E   0AC3           01797         INCF    Quotient1,F
059F   085D           01798         MOVF    ZeroNum,W
Message[305]: Using default destination of 1 (file).
05A0   07C3           01799         ADDWF   Quotient1
05A1   2???           01800         GOTO    FINALX2
05A2                  01801 COUNTX2:
05A2   0857           01802         MOVF    IDX16,W
Message[305]: Using default destination of 1 (file).
05A3   07E3           01803         ADDWF   QuotientF
05A4   1803           01804         BTFSC   STATUS,C
05A5   0AE4           01805         INCF    QuotientF1,F
05A6   0858           01806         MOVF    IDX16_H,W
Message[305]: Using default destination of 1 (file).
05A7   07E4           01807         ADDWF   QuotientF1
05A8                  01808 FINALX2:
                      01809 
05A8   1003           01810         BCF     STATUS,C
05A9   0CDD           01811         RRF     ZeroNum,F
05AA   0CDC           01812         RRF     TenNum,F
05AB   1003           01813         BCF     STATUS,C
05AC   0CD8           01814         RRF     IDX16_H,F
05AD   0CD7           01815         RRF     IDX16,F
05AE   1C03           01816         BTFSS   STATUS,C
05AF   2???           01817         GOTO    DIVU16LOOP2
                      01818 
05B0                  01819 END_DIV2:
Warning[203]: Found opcode in column 1. (MOVF)
05B0   0842           01820 MOVF Quotient,W
Warning[203]: Found opcode in column 1. (MOVWF)
05B1   00E1           01821 MOVWF DivTens
Warning[203]: Found opcode in column 1. (MOVF)
05B2   0863           01822 MOVF QuotientF,W
Warning[203]: Found opcode in column 1. (MOVWF)
05B3   00C2           01823 MOVWF Quotient
Warning[203]: Found opcode in column 1. (MOVF)
05B4   0864           01824 MOVF QuotientF1,W
Warning[203]: Found opcode in column 1. (MOVWF)
05B5   00C3           01825 MOVWF Quotient1
                      01826 ;;;;;;;;;;;;;;;;;;hundreds
05B6                  01827 DIVV163
Warning[203]: Found opcode in column 1. (MOVLW)
MPASM  5.50                           PIC.ASM   7-27-2023  10:27:58         PAGE 48


LOC  OBJECT CODE     LINE SOURCE TEXT
  VALUE

05B6   300A           01828 MOVLW 0x0A
Warning[203]: Found opcode in column 1. (MOVWF)
05B7   00DC           01829 MOVWF TenNum
05B8                  01830 ZERO_TEST_SKIPPED3
Warning[203]: Found opcode in column 1. (CLRF)
05B8   01E3           01831 CLRF QuotientF
Warning[203]: Found opcode in column 1. (CLRF)
05B9   01E4           01832 CLRF QuotientF1
Warning[203]: Found opcode in column 1. (CLRF)
05BA   01D9           01833 CLRF TEMPYY
05BB   3001           01834         MOVLW   1
05BC   00D7           01835         MOVWF   IDX16
05BD   01D8           01836         CLRF    IDX16_H
                      01837 
05BE                  01838 SHIFT_IT163:
05BE   1BDD           01839         BTFSC   ZeroNum,7
05BF   2???           01840         GOTO    DIVU16LOOP3
05C0   1003           01841         BCF     STATUS,C
05C1   0DD7           01842         RLF     IDX16,F
05C2   0DD8           01843         RLF     IDX16_H,F
05C3   1003           01844         BCF     STATUS,C
05C4   0DDC           01845         RLF     TenNum,F
05C5   0DDD           01846         RLF     ZeroNum,F
05C6   2???           01847         GOTO    SHIFT_IT163
05C7                  01848 DIVU16LOOP3:
                      01849 
                      01850 
05C7   085D           01851         MOVF    ZeroNum,W
05C8   00D9           01852         MOVWF   TEMPYY
05C9   085C           01853         MOVF    TenNum,W
Message[305]: Using default destination of 1 (file).
05CA   02C2           01854         SUBWF   Quotient
05CB   1C03           01855         BTFSS   STATUS,C
05CC   0AD9           01856         INCF    TEMPYY,F
05CD   0859           01857         MOVF    TEMPYY,W
Message[305]: Using default destination of 1 (file).
05CE   02C3           01858         SUBWF   Quotient1
                      01859 
                      01860 
05CF   1803           01861         BTFSC   STATUS,C
05D0   2???           01862         GOTO    COUNTX3
05D1   085C           01863         MOVF    TenNum,W
Message[305]: Using default destination of 1 (file).
05D2   07C2           01864         ADDWF   Quotient
05D3   1803           01865         BTFSC   STATUS,C
05D4   0AC3           01866         INCF    Quotient1,F
05D5   085D           01867         MOVF    ZeroNum,W
Message[305]: Using default destination of 1 (file).
05D6   07C3           01868         ADDWF   Quotient1
05D7   2???           01869         GOTO    FINALX3
05D8                  01870 COUNTX3:
05D8   0857           01871         MOVF    IDX16,W
Message[305]: Using default destination of 1 (file).
MPASM  5.50                           PIC.ASM   7-27-2023  10:27:58         PAGE 49


LOC  OBJECT CODE     LINE SOURCE TEXT
  VALUE

05D9   07E3           01872         ADDWF   QuotientF
05DA   1803           01873         BTFSC   STATUS,C
05DB   0AE4           01874         INCF    QuotientF1,F
05DC   0858           01875         MOVF    IDX16_H,W
Message[305]: Using default destination of 1 (file).
05DD   07E4           01876         ADDWF   QuotientF1
05DE                  01877 FINALX3:
                      01878 
05DE   1003           01879         BCF     STATUS,C
05DF   0CDD           01880         RRF     ZeroNum,F
05E0   0CDC           01881         RRF     TenNum,F
05E1   1003           01882         BCF     STATUS,C
05E2   0CD8           01883         RRF     IDX16_H,F
05E3   0CD7           01884         RRF     IDX16,F
05E4   1C03           01885         BTFSS   STATUS,C
05E5   2???           01886         GOTO    DIVU16LOOP3
                      01887 
05E6                  01888 END_DIV3:
Warning[203]: Found opcode in column 1. (MOVF)
05E6   0842           01889 MOVF Quotient,W
Warning[203]: Found opcode in column 1. (MOVWF)
05E7   00E0           01890 MOVWF DivHundreds
Warning[203]: Found opcode in column 1. (MOVF)
05E8   0863           01891 MOVF QuotientF,W
Warning[203]: Found opcode in column 1. (MOVWF)
05E9   00C2           01892 MOVWF Quotient
Warning[203]: Found opcode in column 1. (MOVF)
05EA   0864           01893 MOVF QuotientF1,W
Warning[203]: Found opcode in column 1. (MOVWF)
05EB   00C3           01894 MOVWF Quotient1
                      01895 ;;;;;;;;;;;;;;;;;;thousands
05EC                  01896 DIVV164
Warning[203]: Found opcode in column 1. (MOVLW)
05EC   300A           01897 MOVLW 0x0A
Warning[203]: Found opcode in column 1. (MOVWF)
05ED   00DC           01898 MOVWF TenNum
Warning[203]: Found opcode in column 1. (CLRF)
05EE   01E3           01899 CLRF QuotientF
Warning[203]: Found opcode in column 1. (CLRF)
05EF   01E4           01900 CLRF QuotientF1
Warning[203]: Found opcode in column 1. (CLRF)
05F0   01D9           01901 CLRF TEMPYY
05F1   3001           01902         MOVLW   1
05F2   00D7           01903         MOVWF   IDX16
05F3   01D8           01904         CLRF    IDX16_H
                      01905 
05F4                  01906 SHIFT_IT164:
05F4   1BDD           01907         BTFSC   ZeroNum,7
05F5   2???           01908         GOTO    DIVU16LOOP4
05F6   1003           01909         BCF     STATUS,C
05F7   0DD7           01910         RLF     IDX16,F
05F8   0DD8           01911         RLF     IDX16_H,F
05F9   1003           01912         BCF     STATUS,C
MPASM  5.50                           PIC.ASM   7-27-2023  10:27:58         PAGE 50


LOC  OBJECT CODE     LINE SOURCE TEXT
  VALUE

05FA   0DDC           01913         RLF     TenNum,F
05FB   0DDD           01914         RLF     ZeroNum,F
05FC   2???           01915         GOTO    SHIFT_IT164
05FD                  01916 DIVU16LOOP4:
                      01917 
                      01918 
05FD   085D           01919         MOVF    ZeroNum,W
05FE   00D9           01920         MOVWF   TEMPYY
05FF   085C           01921         MOVF    TenNum,W
Message[305]: Using default destination of 1 (file).
0600   02C2           01922         SUBWF   Quotient
0601   1C03           01923         BTFSS   STATUS,C
0602   0AD9           01924         INCF    TEMPYY,F
0603   0859           01925         MOVF    TEMPYY,W
Message[305]: Using default destination of 1 (file).
0604   02C3           01926         SUBWF   Quotient1
                      01927 
                      01928 
0605   1803           01929         BTFSC   STATUS,C
0606   2???           01930         GOTO    COUNTX4
0607   085C           01931         MOVF    TenNum,W
Message[305]: Using default destination of 1 (file).
0608   07C2           01932         ADDWF   Quotient
0609   1803           01933         BTFSC   STATUS,C
060A   0AC3           01934         INCF    Quotient1,F
060B   085D           01935         MOVF    ZeroNum,W
Message[305]: Using default destination of 1 (file).
060C   07C3           01936         ADDWF   Quotient1
060D   2???           01937         GOTO    FINALX4
060E                  01938 COUNTX4:
060E   0857           01939         MOVF    IDX16,W
Message[305]: Using default destination of 1 (file).
060F   07E3           01940         ADDWF   QuotientF
0610   1803           01941         BTFSC   STATUS,C
0611   0AE4           01942         INCF    QuotientF1,F
0612   0858           01943         MOVF    IDX16_H,W
Message[305]: Using default destination of 1 (file).
0613   07E4           01944         ADDWF   QuotientF1
0614                  01945 FINALX4:
                      01946 
0614   1003           01947         BCF     STATUS,C
0615   0CDD           01948         RRF     ZeroNum,F
0616   0CDC           01949         RRF     TenNum,F
0617   1003           01950         BCF     STATUS,C
0618   0CD8           01951         RRF     IDX16_H,F
0619   0CD7           01952         RRF     IDX16,F
061A   1C03           01953         BTFSS   STATUS,C
061B   2???           01954         GOTO    DIVU16LOOP4
                      01955 
061C                  01956 END_DIV4:
Warning[203]: Found opcode in column 1. (MOVF)
061C   0842           01957 MOVF Quotient,W
Warning[203]: Found opcode in column 1. (MOVWF)
MPASM  5.50                           PIC.ASM   7-27-2023  10:27:58         PAGE 51


LOC  OBJECT CODE     LINE SOURCE TEXT
  VALUE

061D   00DF           01958 MOVWF DivThousands
Warning[203]: Found opcode in column 1. (MOVF)
061E   0863           01959 MOVF QuotientF,W
Warning[203]: Found opcode in column 1. (MOVWF)
061F   00C2           01960 MOVWF Quotient
Warning[203]: Found opcode in column 1. (MOVF)
0620   0864           01961 MOVF QuotientF1,W
Warning[203]: Found opcode in column 1. (MOVWF)
0621   00C3           01962 MOVWF Quotient1
                      01963 
Warning[203]: Found opcode in column 1. (MOVF)
0622   0863           01964 MOVF QuotientF,W
Warning[203]: Found opcode in column 1. (MOVWF)
0623   00DE           01965 MOVWF DivTenThousands
Warning[203]: Found opcode in column 1. (MOVF)
0624   0863           01966 MOVF QuotientF,W
Warning[203]: Found opcode in column 1. (MOVWF)
0625   00C2           01967 MOVWF Quotient
Warning[203]: Found opcode in column 1. (MOVF)
0626   0864           01968 MOVF QuotientF1,W
Warning[203]: Found opcode in column 1. (MOVWF)
0627   00C3           01969 MOVWF Quotient1
                      01970 
Warning[203]: Found opcode in column 1. (goto)
0628   2???           01971 goto convertingAndDivisionDone
                      01972 
0629                  01973 printDivision:
                      01974 
0629   2???           01975     CALL xms                         ; Delay for initialization
062A   2???           01976     CALL xms
062B   2???           01977     CALL inid                        ; Initialize the LCD display
062C   1274           01978     BCF Select, RS
                      01979 
                      01980     ; Send the ASCII code for 'h' to display the character
                      01981     ; Set cursor to the first line, first position (address 0x00)
062D   3080           01982     MOVLW 0x80
062E   2???           01983     CALL send                        ; Send command to set cursor position
062F   1674           01984     BSF Select, RS
Warning[203]: Found opcode in column 1. (CALL)
0630   2???           01985 CALL PrintOp 
                      01986 
0631   1274           01987         BCF Select, RS
                      01988 
                      01989     ; Send the ASCII code for 'h' to display the character
                      01990     ; Set cursor to the first line, first position (address 0x00)
0632   30C0           01991     MOVLW 0xC0
0633   2???           01992     CALL send                        ; Send command to set cursor position
0634   1674           01993     BSF Select, RS
0635   303D           01994     MOVLW '='
0636   2???           01995     CALL send
0637   085E           01996     MOVF DivTenThousands, W                  ; Load counter value into W register
0638   2???           01997     CALL numToASCII                  ; Convert the counter value to ASCII
0639   2???           01998     CALL send  
MPASM  5.50                           PIC.ASM   7-27-2023  10:27:58         PAGE 52


LOC  OBJECT CODE     LINE SOURCE TEXT
  VALUE

063A   085F           01999     MOVF DivThousands, W                  ; Load counter value into W register
063B   2???           02000     CALL numToASCII                  ; Convert the counter value to ASCII
063C   2???           02001     CALL send                        ; Send the ASCII character to the LCD display
063D   0860           02002     MOVF DivHundreds, W                  ; Load counter value into W register
063E   2???           02003     CALL numToASCII                  ; Convert the counter value to ASCII
063F   2???           02004     CALL send  
0640   0861           02005     MOVF DivTens, W                  ; Load counter value into W register
0641   2???           02006     CALL numToASCII                  ; Convert the counter value to ASCII
0642   2???           02007     CALL send  
0643   0862           02008     MOVF DivOnes, W                  ; Load counter value into W register
0644   2???           02009     CALL numToASCII                  ; Convert the counter value to ASCII
0645   2???           02010     CALL send
                      02011 
0646   3020           02012     MOVLW ' '
0647   2???           02013     CALL send
0648   3052           02014     MOVLW 'R'
0649   2???           02015     CALL send
064A   303A           02016     MOVLW ':'
064B   2???           02017     CALL send
064C   086B           02018     MOVF RemTenThousands, W                  ; Load counter value into W register
064D   2???           02019     CALL numToASCII                  ; Convert the counter value to ASCII
064E   2???           02020     CALL send  
064F   086A           02021     MOVF RemThousands, W                  ; Load counter value into W register
0650   2???           02022     CALL numToASCII                  ; Convert the counter value to ASCII
0651   2???           02023     CALL send                        ; Send the ASCII character to the LCD display
0652   0869           02024     MOVF RemHundreds, W                  ; Load counter value into W register
0653   2???           02025     CALL numToASCII                  ; Convert the counter value to ASCII
0654   2???           02026     CALL send  
0655   0868           02027     MOVF RemTens, W                  ; Load counter value into W register
0656   2???           02028     CALL numToASCII                  ; Convert the counter value to ASCII
0657   2???           02029     CALL send  
0658   0867           02030     MOVF RemOnes, W                  ; Load counter value into W register
0659   2???           02031     CALL numToASCII                  ; Convert the counter value to ASCII
065A   2???           02032     CALL send
Warning[203]: Found opcode in column 1. (GOTO)
065B   2???           02033 GOTO SingleDouble
                      02034 
                      02035 
065C                  02036 MOD:
Warning[203]: Found opcode in column 1. (goto)
065C   2???           02037 goto converting
                      02038 
065D                  02039 convertingAndDivisionDone:
Warning[203]: Found opcode in column 1. (MOVLW)
065D   300A           02040 MOVLW 0x0A
Warning[203]: Found opcode in column 1. (MOVWF)
065E   00DC           02041 MOVWF TenNum
Warning[203]: Found opcode in column 1. (CLRF)
065F   01D7           02042 CLRF IDX16 
Warning[203]: Found opcode in column 1. (CLRF)
0660   01D8           02043 CLRF IDX16_H 
Warning[203]: Found opcode in column 1. (CLRF)
0661   01D9           02044 CLRF TEMPYY 
MPASM  5.50                           PIC.ASM   7-27-2023  10:27:58         PAGE 53


LOC  OBJECT CODE     LINE SOURCE TEXT
  VALUE

                      02045 ;;;;;;;;;;;;;;;;;;;;;;;;;getting digits ones;;;;;
0662                  02046 MOD161
0662   01E5           02047         CLRF RemainderF
0663   01E6           02048         CLRF RemainderF1
0664   01D9           02049         CLRF TEMPYY
0665   3001           02050         MOVLW   1
0666   00D7           02051         MOVWF   IDX16
0667   01D8           02052         CLRF    IDX16_H
                      02053 
0668                  02054 SHIFT_IT16MOD1
0668   1BDD           02055         BTFSC   ZeroNum,7
0669   2???           02056         GOTO    DIVU16LOOPMOD1
066A   1003           02057         BCF     STATUS,C
066B   0DD7           02058   RLF     IDX16,F
066C   0DD8           02059   RLF     IDX16_H,F
066D   1003           02060   BCF     STATUS,C
066E   0DDC           02061   RLF     TenNum,F
066F   0DDD           02062   RLF     ZeroNum,F
0670   2???           02063   GOTO    SHIFT_IT16MOD1
0671                  02064 DIVU16LOOPMOD1
                      02065 
                      02066 
0671   085D           02067         MOVF    ZeroNum,W
0672   00D9           02068         MOVWF   TEMPYY
0673   085C           02069         MOVF    TenNum,W
Message[305]: Using default destination of 1 (file).
0674   02DA           02070         SUBWF   RemainderL
0675   1C03           02071         BTFSS   STATUS,C
0676   0AD9           02072         INCF    TEMPYY,F
0677   0859           02073         MOVF    TEMPYY,W
Message[305]: Using default destination of 1 (file).
0678   02DB           02074         SUBWF   RemainderH
                      02075 
                      02076 
0679   1803           02077         BTFSC   STATUS,C
067A   2???           02078         GOTO    COUNTXMOD1
067B   085C           02079         MOVF    TenNum,W
Message[305]: Using default destination of 1 (file).
067C   07DA           02080         ADDWF   RemainderL
067D   1803           02081         BTFSC   STATUS,C
067E   0ADB           02082         INCF    RemainderH,F
067F   085D           02083         MOVF    ZeroNum,W
Message[305]: Using default destination of 1 (file).
0680   07DB           02084         ADDWF   RemainderH
0681   2???           02085         GOTO    FINALXMOD1
0682                  02086 COUNTXMOD1
0682   0857           02087         MOVF    IDX16,W
Message[305]: Using default destination of 1 (file).
0683   07E5           02088         ADDWF   RemainderF
0684   1803           02089         BTFSC   STATUS,C
0685   0AE6           02090         INCF    RemainderF1,F
0686   0858           02091         MOVF    IDX16_H,W
Message[305]: Using default destination of 1 (file).
MPASM  5.50                           PIC.ASM   7-27-2023  10:27:58         PAGE 54


LOC  OBJECT CODE     LINE SOURCE TEXT
  VALUE

0687   07E6           02092         ADDWF   RemainderF1
0688                  02093 FINALXMOD1
                      02094 
0688   1003           02095         BCF     STATUS,C
0689   0CDD           02096         RRF     ZeroNum,F
068A   0CDC           02097         RRF     TenNum,F
068B   1003           02098         BCF     STATUS,C
068C   0CD8           02099         RRF     IDX16_H,F
068D   0CD7           02100         RRF     IDX16,F
068E   1C03           02101         BTFSS   STATUS,C
068F   2???           02102         GOTO    DIVU16LOOPMOD1
                      02103 
0690                  02104 END_DIVMOD1:
0690   085A           02105         MOVF RemainderL,W
0691   00E7           02106         MOVWF RemOnes
0692   0865           02107         MOVF RemainderF,W
0693   00DA           02108         MOVWF RemainderL
0694   0866           02109         MOVF RemainderF1,W
0695   00DB           02110         MOVWF RemainderH
                      02111 ;;;;;;;;;;;;;;;;;;;;;;;;;;;;;;;;;div tens digit
                      02112 
                      02113 
0696                  02114 MOD162
0696   300A           02115         MOVLW 0x0A
0697   00DC           02116         MOVWF TenNum
0698                  02117 ZERO_TEST_SKIPPEDMOD2
0698   01E5           02118         CLRF RemainderF
0699   01E6           02119         CLRF RemainderF1
069A   01D9           02120         CLRF TEMPYY
069B   3001           02121         MOVLW   1
069C   00D7           02122         MOVWF   IDX16
069D   01D8           02123         CLRF    IDX16_H
                      02124 
069E                  02125 SHIFT_IT16MOD2:
069E   1BDD           02126         BTFSC   ZeroNum,7
069F   2???           02127         GOTO    DIVU16LOOPMOD2
06A0   1003           02128         BCF     STATUS,C
06A1   0DD7           02129   RLF     IDX16,F
06A2   0DD8           02130   RLF     IDX16_H,F
06A3   1003           02131   BCF     STATUS,C
06A4   0DDC           02132   RLF     TenNum,F
06A5   0DDD           02133   RLF     ZeroNum,F
06A6   2???           02134   GOTO    SHIFT_IT16MOD2
06A7                  02135 DIVU16LOOPMOD2:
                      02136 
                      02137 
06A7   085D           02138         MOVF    ZeroNum,W
06A8   00D9           02139         MOVWF   TEMPYY
06A9   085C           02140         MOVF    TenNum,W
Message[305]: Using default destination of 1 (file).
06AA   02DA           02141         SUBWF   RemainderL
06AB   1C03           02142         BTFSS   STATUS,C
06AC   0AD9           02143         INCF    TEMPYY,F
MPASM  5.50                           PIC.ASM   7-27-2023  10:27:58         PAGE 55


LOC  OBJECT CODE     LINE SOURCE TEXT
  VALUE

06AD   0859           02144         MOVF    TEMPYY,W
Message[305]: Using default destination of 1 (file).
06AE   02DB           02145         SUBWF   RemainderH
                      02146 
                      02147 
06AF   1803           02148         BTFSC   STATUS,C
06B0   2???           02149         GOTO    COUNTXMOD2
06B1   085C           02150         MOVF    TenNum,W
Message[305]: Using default destination of 1 (file).
06B2   07DA           02151         ADDWF   RemainderL
06B3   1803           02152         BTFSC   STATUS,C
06B4   0ADB           02153         INCF    RemainderH,F
06B5   085D           02154         MOVF    ZeroNum,W
Message[305]: Using default destination of 1 (file).
06B6   07DB           02155         ADDWF   RemainderH
06B7   2???           02156         GOTO    FINALXMOD2
06B8                  02157 COUNTXMOD2:
06B8   0857           02158         MOVF    IDX16,W
Message[305]: Using default destination of 1 (file).
06B9   07E5           02159         ADDWF   RemainderF
06BA   1803           02160         BTFSC   STATUS,C
06BB   0AE6           02161         INCF    RemainderF1,F
06BC   0858           02162         MOVF    IDX16_H,W
Message[305]: Using default destination of 1 (file).
06BD   07E6           02163         ADDWF   RemainderF1
06BE                  02164 FINALXMOD2:
                      02165 
06BE   1003           02166         BCF     STATUS,C
06BF   0CDD           02167         RRF     ZeroNum,F
06C0   0CDC           02168         RRF     TenNum,F
06C1   1003           02169         BCF     STATUS,C
06C2   0CD8           02170         RRF     IDX16_H,F
06C3   0CD7           02171         RRF     IDX16,F
06C4   1C03           02172         BTFSS   STATUS,C
06C5   2???           02173         GOTO    DIVU16LOOPMOD2
                      02174 
06C6                  02175 END_DIVMOD2:
06C6   085A           02176         MOVF RemainderL,W
06C7   00E8           02177         MOVWF RemTens
06C8   0865           02178         MOVF RemainderF,W
06C9   00DA           02179         MOVWF RemainderL
06CA   0866           02180         MOVF RemainderF1,W
06CB   00DB           02181         MOVWF RemainderH
                      02182 ;;;;;;;;;;;;;;;;;;hundreds
06CC                  02183 MOD163
06CC   300A           02184         MOVLW 0x0A
06CD   00DC           02185         MOVWF TenNum
06CE                  02186 ZERO_TEST_SKIPPEDMOD3
06CE   01E5           02187         CLRF RemainderF
06CF   01E6           02188         CLRF RemainderF1
06D0   01D9           02189         CLRF TEMPYY
06D1   3001           02190         MOVLW   1
06D2   00D7           02191         MOVWF   IDX16
MPASM  5.50                           PIC.ASM   7-27-2023  10:27:58         PAGE 56


LOC  OBJECT CODE     LINE SOURCE TEXT
  VALUE

06D3   01D8           02192         CLRF    IDX16_H
                      02193 
06D4                  02194 SHIFT_IT16MOD3:
06D4   1BDD           02195         BTFSC   ZeroNum,7
06D5   2???           02196         GOTO    DIVU16LOOPMOD3
06D6   1003           02197         BCF     STATUS,C
06D7   0DD7           02198   RLF     IDX16,F
06D8   0DD8           02199   RLF     IDX16_H,F
06D9   1003           02200   BCF     STATUS,C
06DA   0DDC           02201   RLF     TenNum,F
06DB   0DDD           02202   RLF     ZeroNum,F
06DC   2???           02203   GOTO    SHIFT_IT16MOD3
06DD                  02204 DIVU16LOOPMOD3:
                      02205 
                      02206 
06DD   085D           02207         MOVF    ZeroNum,W
06DE   00D9           02208         MOVWF   TEMPYY
06DF   085C           02209         MOVF    TenNum,W
Message[305]: Using default destination of 1 (file).
06E0   02DA           02210         SUBWF   RemainderL
06E1   1C03           02211         BTFSS   STATUS,C
06E2   0AD9           02212         INCF    TEMPYY,F
06E3   0859           02213         MOVF    TEMPYY,W
Message[305]: Using default destination of 1 (file).
06E4   02DB           02214         SUBWF   RemainderH
                      02215 
                      02216 
06E5   1803           02217         BTFSC   STATUS,C
06E6   2???           02218         GOTO    COUNTXMOD3
06E7   085C           02219         MOVF    TenNum,W
Message[305]: Using default destination of 1 (file).
06E8   07DA           02220         ADDWF   RemainderL
06E9   1803           02221         BTFSC   STATUS,C
06EA   0ADB           02222         INCF    RemainderH,F
06EB   085D           02223         MOVF    ZeroNum,W
Message[305]: Using default destination of 1 (file).
06EC   07DB           02224         ADDWF   RemainderH
06ED   2???           02225         GOTO    FINALXMOD3
06EE                  02226 COUNTXMOD3:
06EE   0857           02227         MOVF    IDX16,W
Message[305]: Using default destination of 1 (file).
06EF   07E5           02228         ADDWF   RemainderF
06F0   1803           02229         BTFSC   STATUS,C
06F1   0AE6           02230         INCF    RemainderF1,F
06F2   0858           02231         MOVF    IDX16_H,W
Message[305]: Using default destination of 1 (file).
06F3   07E6           02232         ADDWF   RemainderF1
06F4                  02233 FINALXMOD3:
                      02234 
06F4   1003           02235         BCF     STATUS,C
06F5   0CDD           02236         RRF     ZeroNum,F
06F6   0CDC           02237         RRF     TenNum,F
06F7   1003           02238         BCF     STATUS,C
MPASM  5.50                           PIC.ASM   7-27-2023  10:27:58         PAGE 57


LOC  OBJECT CODE     LINE SOURCE TEXT
  VALUE

06F8   0CD8           02239         RRF     IDX16_H,F
06F9   0CD7           02240         RRF     IDX16,F
06FA   1C03           02241         BTFSS   STATUS,C
06FB   2???           02242         GOTO    DIVU16LOOPMOD3
                      02243 
06FC                  02244 END_DIVMOD3:
06FC   085A           02245         MOVF RemainderL,W
06FD   00E9           02246         MOVWF RemHundreds
06FE   0865           02247         MOVF RemainderF,W
06FF   00DA           02248         MOVWF RemainderL
0700   0866           02249         MOVF RemainderF1,W
0701   00DB           02250         MOVWF RemainderH
                      02251 ;;;;;;;;;;;;;;;;;;thousands
0702                  02252 MOD164
0702   300A           02253         MOVLW 0x0A
0703   00DC           02254         MOVWF TenNum
0704                  02255 ZERO_TEST_SKIPPEDMOD4
0704   01E5           02256         CLRF RemainderF
0705   01E6           02257         CLRF RemainderF1
0706   01D9           02258         CLRF TEMPYY
0707   3001           02259         MOVLW   1
0708   00D7           02260         MOVWF   IDX16
0709   01D8           02261         CLRF    IDX16_H
                      02262 
070A                  02263 SHIFT_IT16MOD4:
070A   1BDD           02264         BTFSC   ZeroNum,7
070B   2???           02265         GOTO    DIVU16LOOPMOD4
070C   1003           02266         BCF     STATUS,C
070D   0DD7           02267   RLF     IDX16,F
070E   0DD8           02268   RLF     IDX16_H,F
070F   1003           02269   BCF     STATUS,C
0710   0DDC           02270   RLF     TenNum,F
0711   0DDD           02271   RLF     ZeroNum,F
0712   2???           02272   GOTO    SHIFT_IT16MOD4
0713                  02273 DIVU16LOOPMOD4:
                      02274 
                      02275 
0713   085D           02276         MOVF    ZeroNum,W
0714   00D9           02277         MOVWF   TEMPYY
0715   085C           02278         MOVF    TenNum,W
Message[305]: Using default destination of 1 (file).
0716   02DA           02279         SUBWF   RemainderL
0717   1C03           02280         BTFSS   STATUS,C
0718   0AD9           02281         INCF    TEMPYY,F
0719   0859           02282         MOVF    TEMPYY,W
Message[305]: Using default destination of 1 (file).
071A   02DB           02283         SUBWF   RemainderH
                      02284 
                      02285 
071B   1803           02286         BTFSC   STATUS,C
071C   2???           02287         GOTO    COUNTXMOD4
071D   085C           02288         MOVF    TenNum,W
Message[305]: Using default destination of 1 (file).
MPASM  5.50                           PIC.ASM   7-27-2023  10:27:58         PAGE 58


LOC  OBJECT CODE     LINE SOURCE TEXT
  VALUE

071E   07DA           02289         ADDWF   RemainderL
071F   1803           02290         BTFSC   STATUS,C
0720   0ADB           02291         INCF    RemainderH,F
0721   085D           02292         MOVF    ZeroNum,W
Message[305]: Using default destination of 1 (file).
0722   07DB           02293         ADDWF   RemainderH
0723   2???           02294         GOTO    FINALXMOD4
0724                  02295 COUNTXMOD4:
0724   0857           02296         MOVF    IDX16,W
Message[305]: Using default destination of 1 (file).
0725   07E5           02297         ADDWF   RemainderF
0726   1803           02298         BTFSC   STATUS,C
0727   0AE6           02299         INCF    RemainderF1,F
0728   0858           02300         MOVF    IDX16_H,W
Message[305]: Using default destination of 1 (file).
0729   07E6           02301         ADDWF   RemainderF1
072A                  02302 FINALXMOD4:
                      02303 
072A   1003           02304         BCF     STATUS,C
072B   0CDD           02305         RRF     ZeroNum,F
072C   0CDC           02306         RRF     TenNum,F
072D   1003           02307         BCF     STATUS,C
072E   0CD8           02308         RRF     IDX16_H,F
072F   0CD7           02309         RRF     IDX16,F
0730   1C03           02310         BTFSS   STATUS,C
0731   2???           02311         GOTO    DIVU16LOOPMOD4
                      02312 
0732                  02313 END_DIVMOD4:
0732   085A           02314         MOVF RemainderL,W
0733   00EA           02315         MOVWF RemThousands
0734   0865           02316         MOVF RemainderF,W
0735   00DA           02317         MOVWF RemainderL
0736   0866           02318         MOVF RemainderF1,W
0737   00DB           02319         MOVWF RemainderH
                      02320 
0738   0865           02321         MOVF RemainderF,W
0739   00EB           02322         MOVWF RemTenThousands
073A   0865           02323         MOVF RemainderF,W
073B   00DA           02324         MOVWF RemainderL
073C   0866           02325         MOVF RemainderF1,W
073D   00DB           02326         MOVWF RemainderH
                      02327 
                      02328 
073E   3025           02329   MOVLW '%'
073F   0626           02330   XORWF savedSymbol, W        ; Compare savedSymbol with '%'
0740   1D03           02331   BTFSS STATUS, Z             ; Branch if not zero (savedSymbol != '%')
0741   2???           02332   goto printDivision  
                      02333 
0742   2???           02334   CALL xms                         ; Delay for initialization
0743   2???           02335   CALL xms
0744   2???           02336   CALL inid                        ; Initialize the LCD display
0745   1274           02337   BCF Select, RS
                      02338 
MPASM  5.50                           PIC.ASM   7-27-2023  10:27:58         PAGE 59


LOC  OBJECT CODE     LINE SOURCE TEXT
  VALUE

0746   3080           02339   MOVLW 0x80
0747   2???           02340   CALL send                        ; Send command to set cursor position
0748   1674           02341   BSF Select, RS
                      02342 
0749   2???           02343  CALL PrintOp  
                      02344 
074A   1274           02345         BCF Select, RS
                      02346 
074B   30C0           02347   MOVLW 0xC0
074C   2???           02348   CALL send                        ; Send command to set cursor position
074D   1674           02349   BSF Select, RS
074E   303D           02350   MOVLW '='
074F   2???           02351   CALL send
0750   086B           02352   MOVF RemTenThousands, W                  ; Load counter value into W register
0751   2???           02353   CALL numToASCII                  ; Convert the counter value to ASCII
0752   2???           02354   CALL send  
0753   086A           02355   MOVF RemThousands, W                  ; Load counter value into W register
0754   2???           02356   CALL numToASCII                  ; Convert the counter value to ASCII
0755   2???           02357   CALL send                        ; Send the ASCII character to the LCD display
0756   0869           02358   MOVF RemHundreds, W                  ; Load counter value into W register
0757   2???           02359   CALL numToASCII                  ; Convert the counter value to ASCII
0758   2???           02360   CALL send  
0759   0868           02361   MOVF RemTens, W                  ; Load counter value into W register
075A   2???           02362   CALL numToASCII                  ; Convert the counter value to ASCII
075B   2???           02363   CALL send  
075C   0867           02364   MOVF RemOnes, W                  ; Load counter value into W register
075D   2???           02365   CALL numToASCII                  ; Convert the counter value to ASCII
075E   2???           02366   CALL send
                      02367 
                      02368   
                      02369  
                      02370   
075F                  02371 SingleDouble:
Warning[203]: Found opcode in column 1. (MOVLW)
075F   3001           02372 MOVLW 1
Warning[203]: Found opcode in column 1. (MOVWF)
0760   00ED           02373 MOVWF SingleDoubleFlag    
Warning[203]: Found opcode in column 1. (CLRF)
0761   01EE           02374 CLRF YNCounter
Message[302]: Register in operand not in bank 0.  Ensure that bank bits are correct.
0762   140C           02375     BSF PIE1, TMR1IE
                      02376     
0763   3001           02377     MOVLW 0x01                       ; Set TMR1ON and TMR1CS bits (Timer1 enabled, use internal clock)
0764   0090           02378     MOVWF T1CON
                      02379 
0765   160B           02380     BSF INTCON, INTE                 ; Enable external interrupt
0766                  02381 Wait5SecondsYN:
Warning[203]: Found opcode in column 1. (CALL)
0766   2???           02382 CALL TimerCon
                      02383 
                      02384     ; Loop until 5 seconds have passed
Warning[207]: Found label after column 1. (LOOPYN)
0767                  02385     LOOPYN:
MPASM  5.50                           PIC.ASM   7-27-2023  10:27:58         PAGE 60


LOC  OBJECT CODE     LINE SOURCE TEXT
  VALUE

0767   1C0C           02386         BTFSS PIR1, TMR1IF            ; Check Timer1 interrupt flag
0768   2???           02387         GOTO LOOPYN
                      02388 
0769   0BEC           02389     DECFSZ Counter2, 1                ; Decrement Counter1
076A   2???           02390     GOTO Wait5SecondsYN                ; Loop until Counter1 is zero
                      02391 
                      02392     ; Timer1 interrupt occurred, reset the Timer1 interrupt flag
076B   100C           02393     BCF PIR1, TMR1IF
Message[302]: Register in operand not in bank 0.  Ensure that bank bits are correct.
076C   100C           02394     BCF PIE1, TMR1IE                 ; Disable Timer1 interrupt
076D   3000           02395     MOVLW 0x00                       ; Set TMR1ON and TMR1CS bits (Timer1 enabled, use internal clock)
076E   0090           02396     MOVWF T1CON
Message[302]: Register in operand not in bank 0.  Ensure that bank bits are correct.
076F   140C           02397     BSF PIE1, TMR1IE                 ; Enable Timer1 interrupt
0770   01A8           02398     CLRF Counter                     ; Reset the counter value to zero
0771   01AA           02399     CLRF CounterTemp                     ; Reset the counter value to zero
Warning[203]: Found opcode in column 1. (CALL)
0772   2???           02400 CALL CountersInit
0773   3001           02401     MOVLW 0x01                       ; Set TMR1ON and TMR1CS bits (Timer1 enabled, use internal clock)
0774   0090           02402     MOVWF T1CON
0775   160B           02403     BSF INTCON, INTE                 ; Enable external interrupt
0776   01ED           02404     CLRF SingleDoubleFlag
0777   2???           02405  CALL xms                         ; Delay for initialization
0778   2???           02406   CALL xms
0779   2???           02407   CALL inid                        ; Initialize the LCD display
                      02408   
077A   1274           02409   BCF Select, RS
                      02410 
077B   3080           02411   MOVLW 0x80
077C   2???           02412   CALL send                        ; Send command to set cursor position
077D   1674           02413   BSF Select, RS
                      02414 
077E   304B           02415   MOVLW 'K'
077F   2???           02416   CALL send
                      02417 
0780   3065           02418   MOVLW 'e'
0781   2???           02419   CALL send
                      02420     
0782   3065           02421   MOVLW 'e'
0783   2???           02422   CALL send
                      02423     
0784   3070           02424   MOVLW 'p'
0785   2???           02425   CALL send
                      02426     
0786   303F           02427   MOVLW '?'
0787   2???           02428   CALL send
                      02429 
0788   305B           02430   MOVLW '['
0789   2???           02431   CALL send   
078A   3031           02432   MOVLW '1'
078B   2???           02433   CALL send
                      02434 
078C   303A           02435   MOVLW ':'
MPASM  5.50                           PIC.ASM   7-27-2023  10:27:58         PAGE 61


LOC  OBJECT CODE     LINE SOURCE TEXT
  VALUE

078D   2???           02436   CALL send
078E   3059           02437   MOVLW 'Y'
078F   2???           02438   CALL send
                      02439 
0790   302C           02440   MOVLW ','
0791   2???           02441   CALL send     
                      02442   
0792   3020           02443     MOVLW ' '
0793   2???           02444   CALL send
                      02445 
0794   3032           02446   MOVLW '2'
0795   2???           02447   CALL send   
0796   303A           02448     MOVLW ':'
0797   2???           02449   CALL send
                      02450 
0798   304E           02451   MOVLW 'N'
0799   2???           02452   CALL send  
079A   305D           02453   MOVLW ']'
079B   2???           02454   CALL send  
Message[302]: Register in operand not in bank 0.  Ensure that bank bits are correct.
079C   140C           02455     BSF PIE1, TMR1IE
                      02456 
079D   3001           02457     MOVLW 0x01                       ; Set TMR1ON and TMR1CS bits (Timer1 enabled, use internal clock)
079E   0090           02458     MOVWF T1CON
                      02459 
079F   160B           02460     BSF INTCON, INTE                 ; Enable external interrupt
07A0                  02461 Wait5SecondsYN1:
Warning[203]: Found opcode in column 1. (CALL)
07A0   2???           02462 CALL TimerCon
                      02463 
                      02464     ; Loop until 5 seconds have passed
Warning[207]: Found label after column 1. (LOOPYN1)
07A1                  02465     LOOPYN1:
07A1   1C0C           02466         BTFSS PIR1, TMR1IF            ; Check Timer1 interrupt flag
07A2   2???           02467         GOTO LOOPYN1
                      02468 
07A3   0BA9           02469     DECFSZ Counter1, 1                ; Decrement Counter1
07A4   2???           02470     GOTO Wait5SecondsYN1                ; Loop until Counter1 is zero
                      02471 
                      02472     ; Timer1 interrupt occurred, reset the Timer1 interrupt flag
07A5   100C           02473     BCF PIR1, TMR1IF
Message[302]: Register in operand not in bank 0.  Ensure that bank bits are correct.
07A6   100C           02474     BCF PIE1, TMR1IE                 ; Disable Timer1 interrupt
07A7   3000           02475     MOVLW 0x00                       ; Set TMR1ON and TMR1CS bits (Timer1 enabled, use internal clock)
07A8   0090           02476     MOVWF T1CON
Message[302]: Register in operand not in bank 0.  Ensure that bank bits are correct.
07A9   140C           02477     BSF PIE1, TMR1IE                 ; Enable Timer1 interrupt
07AA   01A8           02478     CLRF Counter                     ; Reset the counter value to zero
07AB   01AA           02479     CLRF CounterTemp                     ; Reset the counter value to zero
07AC   2???           02480       CALL CountersInit
07AD   3001           02481     MOVLW 0x01                       ; Set TMR1ON and TMR1CS bits (Timer1 enabled, use internal clock)
07AE   0090           02482     MOVWF T1CON
07AF   160B           02483     BSF INTCON, INTE                 ; Enable external interrupt  
MPASM  5.50                           PIC.ASM   7-27-2023  10:27:58         PAGE 62


LOC  OBJECT CODE     LINE SOURCE TEXT
  VALUE

07B0   3001           02484     MOVLW 1
07B1   00ED           02485  MOVWF SingleDoubleFlag
Warning[203]: Found opcode in column 1. (MOVLW)
07B2   3001           02486 MOVLW 1
Warning[203]: Found opcode in column 1. (XORWF)
07B3   066E           02487 XORWF YNCounter,W
Warning[203]: Found opcode in column 1. (BTFSS)
07B4   1D03           02488 BTFSS STATUS,Z
Warning[203]: Found opcode in column 1. (GOTO)
07B5   2???           02489 GOTO YN2
07B6   2???           02490  CALL xms                         ; Delay for initialization
07B7   2???           02491   CALL xms
07B8   2???           02492   CALL inid                        ; Initialize the LCD display
07B9   1274           02493     BCF Select, RS
07BA   3080           02494     MOVLW 0x80
07BB   2???           02495     CALL send                        ; Send command to set cursor position
07BC   1674           02496     BSF Select, RS
07BD   2???           02497   CALL PrintRes
07BE   1274           02498   BCF Select, RS
07BF   30C0           02499   MOVLW 0xC0
07C0   2???           02500   CALL send                        ; Send command to set cursor position
07C1   1674           02501   BSF Select, RS
07C2   0831           02502   MOVF tenThousandsFirstNum, W                  ; Load counter value into W register
07C3   2???           02503   CALL numToASCII                  ; Convert the counter value to ASCII
07C4   2???           02504   CALL send  
07C5   0832           02505   MOVF ThousandsFirstNum, W                  ; Load counter value into W register
07C6   2???           02506   CALL numToASCII                  ; Convert the counter value to ASCII
07C7   2???           02507   CALL send                        ; Send the ASCII character to the LCD display
07C8   0833           02508   MOVF HundredsFirstNum, W                  ; Load counter value into W register
07C9   2???           02509   CALL numToASCII                  ; Convert the counter value to ASCII
07CA   2???           02510   CALL send  
07CB   0834           02511   MOVF TensFirstNum, W                  ; Load counter value into W register
07CC   2???           02512   CALL numToASCII                  ; Convert the counter value to ASCII
07CD   2???           02513   CALL send  
07CE   0835           02514   MOVF OnesFirstNum, W                  ; Load counter value into W register
07CF   2???           02515   CALL numToASCII                  ; Convert the counter value to ASCII
07D0   2???           02516   CALL send
                      02517 
                      02518 ;;;;
07D1   0826           02519   MOVF savedSymbol, W                  ; Load counter value into W register
07D2   2???           02520   CALL send
                      02521   
07D3   084D           02522    MOVF tenThousandsSecondNum, W                  ; Load counter value into W register
07D4   2???           02523   CALL numToASCII     
Warning[203]: Found opcode in column 1. (CALL)
07D5   2???           02524 CALL send
07D6   084E           02525   MOVF ThousandsSecondNum, W                  ; Load counter value into W register
07D7   2???           02526   CALL numToASCII                  ; Convert the counter value to ASCII
07D8   2???           02527   CALL send                        ; Send the ASCII character to the LCD display
07D9   084F           02528   MOVF HundredsSecondNum, W                  ; Load counter value into W register
07DA   2???           02529   CALL numToASCII                  ; Convert the counter value to ASCII
07DB   2???           02530   CALL send  
07DC   0850           02531   MOVF TensSecondNum, W                  ; Load counter value into W register
MPASM  5.50                           PIC.ASM   7-27-2023  10:27:58         PAGE 63


LOC  OBJECT CODE     LINE SOURCE TEXT
  VALUE

07DD   2???           02532   CALL numToASCII                  ; Convert the counter value to ASCII
07DE   2???           02533   CALL send  
07DF   0851           02534   MOVF OnesSecondNum, W                  ; Load counter value into W register
07E0   2???           02535   CALL numToASCII                  ; Convert the counter value to ASCII
07E1   2???           02536   CALL send
                      02537   
Message[302]: Register in operand not in bank 0.  Ensure that bank bits are correct.
07E2   140C           02538     BSF PIE1, TMR1IE
                      02539 
07E3   3001           02540     MOVLW 0x01                       ; Set TMR1ON and TMR1CS bits (Timer1 enabled, use internal clock)
07E4   0090           02541     MOVWF T1CON
                      02542 
07E5   160B           02543     BSF INTCON, INTE                 ; Enable external interrupt
07E6                  02544 Wait5SecondsYN2:
Warning[203]: Found opcode in column 1. (CALL)
07E6   2???           02545 CALL TimerCon
                      02546 
                      02547     ; Loop until 5 seconds have passed
Warning[207]: Found label after column 1. (LOOPYN2)
07E7                  02548     LOOPYN2:
07E7   1C0C           02549         BTFSS PIR1, TMR1IF            ; Check Timer1 interrupt flag
07E8   2???           02550         GOTO LOOPYN2
                      02551 
07E9   0BA9           02552     DECFSZ Counter1, 1                ; Decrement Counter1
07EA   2???           02553     GOTO Wait5SecondsYN2                ; Loop until Counter1 is zero
                      02554 
                      02555     ; Timer1 interrupt occurred, reset the Timer1 interrupt flag
07EB   100C           02556     BCF PIR1, TMR1IF
Message[302]: Register in operand not in bank 0.  Ensure that bank bits are correct.
07EC   100C           02557     BCF PIE1, TMR1IE                 ; Disable Timer1 interrupt
07ED   3000           02558     MOVLW 0x00                       ; Set TMR1ON and TMR1CS bits (Timer1 enabled, use internal clock)
07EE   0090           02559     MOVWF T1CON
Message[302]: Register in operand not in bank 0.  Ensure that bank bits are correct.
07EF   140C           02560     BSF PIE1, TMR1IE                 ; Enable Timer1 interrupt
07F0   01A8           02561     CLRF Counter                     ; Reset the counter value to zero
07F1   01AA           02562     CLRF CounterTemp                     ; Reset the counter value to zero
07F2   2???           02563     CALL CountersInit
07F3   3001           02564     MOVLW 0x01                       ; Set TMR1ON and TMR1CS bits (Timer1 enabled, use internal clock)
07F4   0090           02565     MOVWF T1CON
07F5   160B           02566     BSF INTCON, INTE                 ; Enable external interrupt  
                      02567     ; Send the ASCII code for 'E' to display the character
                      02568 
Warning[203]: Found opcode in column 1. (GOTO)
07F6   2???           02569 GOTO SingleDoubleOP
                      02570 
07F7                  02571 YN2:
07F7   120B           02572     BCF INTCON, INTE                 ; Enable external interrupt
Warning[203]: Found opcode in column 1. (GOTO)
07F8   2???           02573 GOTO init
                      02574         
3731                  02575   end 
MPASM  5.50                           PIC.ASM   7-27-2023  10:27:58         PAGE 64


SYMBOL TABLE
  LABEL                             VALUE 

ACKDT                             00000005
ACKEN                             00000004
ACKSTAT                           00000006
ADCON0                            0000001F
ADCON1                            0000009F
ADCS0                             00000006
ADCS1                             00000007
ADCS2                             00000006
ADDEN                             00000003
ADFM                              00000007
ADIE                              00000006
ADIF                              00000006
ADON                              00000000
ADRESH                            0000001E
ADRESL                            0000009E
BCLIE                             00000003
BCLIF                             00000003
BF                                00000000
BRGH                              00000002
C                                 00000000
C1INV                             00000004
C1OUT                             00000006
C2INV                             00000005
C2OUT                             00000007
CCP1CON                           00000017
CCP1IE                            00000002
CCP1IF                            00000002
CCP1M0                            00000000
CCP1M1                            00000001
CCP1M2                            00000002
CCP1M3                            00000003
CCP1X                             00000005
CCP1Y                             00000004
CCP2CON                           0000001D
CCP2IE                            00000000
CCP2IF                            00000000
CCP2M0                            00000000
CCP2M1                            00000001
CCP2M2                            00000002
CCP2M3                            00000003
CCP2X                             00000005
CCP2Y                             00000004
CCPR1                             00000015
CCPR1H                            00000016
CCPR1L                            00000015
CCPR2                             0000001B
CCPR2H                            0000001C
CCPR2L                            0000001B
CHS0                              00000003
CHS1                              00000004
CHS2                              00000005
CIS                               00000003
CKE                               00000006
MPASM  5.50                           PIC.ASM   7-27-2023  10:27:58         PAGE 65


SYMBOL TABLE
  LABEL                             VALUE 

CKP                               00000004
CM0                               00000000
CM1                               00000001
CM2                               00000002
CMCON                             0000009C
CMIE                              00000006
CMIF                              00000006
COUNTX                            00000533
COUNTX1                           0000056C
COUNTX2                           000005A2
COUNTX3                           000005D8
COUNTX4                           0000060E
COUNTXMOD1                        00000682
COUNTXMOD2                        000006B8
COUNTXMOD3                        000006EE
COUNTXMOD4                        00000724
CREN                              00000004
CSRC                              00000007
CVR0                              00000000
CVR1                              00000001
CVR2                              00000002
CVR3                              00000003
CVRCON                            0000009D
CVREN                             00000007
CVROE                             00000006
CVRR                              00000005
Carry                             00000044
ClearLoopCounters                 00000276
Counter                           00000028
Counter1                          00000029
Counter2                          0000006C
CounterTemp                       0000002A
CountersInit                      00000271
D                                 00000005
DATA_ADDRESS                      00000005
DC                                00000001
DIVU16LOOP                        00000522
DIVU16LOOP1                       0000055B
DIVU16LOOP2                       00000591
DIVU16LOOP3                       000005C7
DIVU16LOOP4                       000005FD
DIVU16LOOPMOD1                    00000671
DIVU16LOOPMOD2                    000006A7
DIVU16LOOPMOD3                    000006DD
DIVU16LOOPMOD4                    00000713
DIVV16                            00000503
DIVV161                           0000054C
DIVV162                           00000580
DIVV163                           000005B6
DIVV164                           000005EC
D_A                               00000005
D_NOT_A                           00000005
DisableTimer                      0000027A
MPASM  5.50                           PIC.ASM   7-27-2023  10:27:58         PAGE 66


SYMBOL TABLE
  LABEL                             VALUE 

DivHundreds                       00000060
DivOnes                           00000062
DivTenThousands                   0000005E
DivTens                           00000061
DivThousands                      0000005F
E                                 00000005
EEADR                             0000010D
EEADRH                            0000010F
EECON1                            0000018C
EECON2                            0000018D
EEDATA                            0000010C
EEDATH                            0000010E
EEIE                              00000004
EEIF                              00000004
EEPGD                             00000007
END_DIV                           00000541
END_DIV1                          0000057A
END_DIV2                          000005B0
END_DIV3                          000005E6
END_DIV4                          0000061C
END_DIVMOD1                       00000690
END_DIVMOD2                       000006C6
END_DIVMOD3                       000006FC
END_DIVMOD4                       00000732
ENFH                              000004A7
ENFO                              000004F3
ENFTE                             000004CF
ENFTH                             0000047B
ENFTT                             0000044B
ENSH                              000004BB
ENSO                              00000503
ENSTE                             000004E3
ENSTH                             00000493
ENSTT                             00000463
EndComparison                     0000038F
EndComparison1                    000003AA
EndComparison2                    000003C5
EndComparison3                    000003E0
EndComparison4                    000003FB
F                                 00000001
FERR                              00000002
FINALX                            00000539
FINALX1                           00000572
FINALX2                           000005A8
FINALX3                           000005DE
FINALX4                           00000614
FINALXMOD1                        00000688
FINALXMOD2                        000006BE
FINALXMOD3                        000006F4
FINALXMOD4                        0000072A
FSR                               00000004
FirstNumH                         00000037
FirstNumL                         00000036
MPASM  5.50                           PIC.ASM   7-27-2023  10:27:58         PAGE 67


SYMBOL TABLE
  LABEL                             VALUE 

GCEN                              00000007
GIE                               00000007
GO                                00000002
GO_DONE                           00000002
GO_NOT_DONE                       00000002
HundredsFirst                     0000002D
HundredsFirstNum                  00000033
HundredsSecond                    00000056
HundredsSecondNum                 0000004F
HundredsSum                       0000003D
HundredsSumEquals9                000003BA
HundredsSumGreaterThan9           000003BD
HundredsSumLessThan9              000003C2
HundredsSumT                      00000047
I2C_DATA                          00000005
I2C_READ                          00000002
I2C_START                         00000003
I2C_STOP                          00000004
IBF                               00000007
IBOV                              00000005
IDX16                             00000057
IDX16_H                           00000058
INDF                              00000000
INTCON                            0000000B
INTE                              00000004
INTEDG                            00000006
INTF                              00000001
IRP                               00000007
ISR                               0000004B
InnerLoopF1TH                     00000470
InnerLoopF1TT                     00000440
InnerLoopF2TH                     00000472
InnerLoopF2TT                     00000442
InnerLoopFH                       000004A0
InnerLoopFT                       000004C8
InnerLoopS1TH                     00000488
InnerLoopS1TT                     00000458
InnerLoopS2TH                     0000048A
InnerLoopS2TT                     0000045A
InnerLoopSH                       000004B4
InnerLoopST                       000004DC
LOOP                              0000028C
LOOP1                             000002A1
LOOP10                            00000361
LOOP2                             000002B6
LOOP3                             000002CB
LOOP4                             000002E0
LOOP5                             000002F7
LOOP6                             0000030A
LOOP7                             0000031F
LOOP8                             00000334
LOOP9                             00000349
LOOPYN                            00000767
MPASM  5.50                           PIC.ASM   7-27-2023  10:27:58         PAGE 68


SYMBOL TABLE
  LABEL                             VALUE 

LOOPYN1                           000007A1
LOOPYN2                           000007E7
LoopFO                            000004EA
LoopSO                            000004FA
MOD                               0000065C
MOD161                            00000662
MOD162                            00000696
MOD163                            000006CC
MOD164                            00000702
NOT_A                             00000005
NOT_ADDRESS                       00000005
NOT_BO                            00000000
NOT_BOR                           00000000
NOT_DONE                          00000002
NOT_EQUAL                         00000097
NOT_EQUAL1                        000000BB
NOT_EQUAL2                        000000E4
NOT_EQUAL3                        0000015C
NOT_EQUAL4                        00000180
NOT_EQUAL5                        000001A9
NOT_PD                            00000003
NOT_POR                           00000001
NOT_RBPU                          00000007
NOT_RC8                           00000006
NOT_T1SYNC                        00000002
NOT_TO                            00000004
NOT_TX8                           00000006
NOT_W                             00000002
NOT_WRITE                         00000002
OBF                               00000006
OERR                              00000001
OPTION_REG                        00000081
OnesFirst                         00000030
OnesFirstNum                      00000035
OnesSecond                        00000053
OnesSecondNum                     00000051
OnesSum                           0000003B
OnesSumEquals9                    00000384
OnesSumGreaterThan9               00000387
OnesSumLessThan9                  0000038C
OnesSumT                          00000045
OutCod                            00000075
OuterLoopFH                       0000049A
OuterLoopFT                       000004C2
OuterLoopFTH                      0000046A
OuterLoopFTT                      0000043A
OuterLoopSH                       000004AE
OuterLoopST                       000004D6
OuterLoopSTH                      00000482
OuterLoopSTT                      00000452
P                                 00000004
PCFG0                             00000000
PCFG1                             00000001
MPASM  5.50                           PIC.ASM   7-27-2023  10:27:58         PAGE 69


SYMBOL TABLE
  LABEL                             VALUE 

PCFG2                             00000002
PCFG3                             00000003
PCL                               00000002
PCLATH                            0000000A
PCON                              0000008E
PEIE                              00000006
PEN                               00000002
PIE1                              0000008C
PIE2                              0000008D
PIR1                              0000000C
PIR2                              0000000D
PORTA                             00000005
PORTB                             00000006
PORTC                             00000007
PORTD                             00000008
PORTE                             00000009
PR2                               00000092
PS0                               00000000
PS1                               00000001
PS2                               00000002
PSA                               00000003
PSPIE                             00000007
PSPIF                             00000007
PSPMODE                           00000004
Point                             00000073
PrintErr                          00000258
PrintOp                           0000024B
PrintRes                          0000022C
Quotient                          00000042
Quotient1                         00000043
QuotientF                         00000063
QuotientF1                        00000064
R                                 00000002
RA0                               00000000
RA1                               00000001
RA2                               00000002
RA3                               00000003
RA4                               00000004
RA5                               00000005
RB0                               00000000
RB1                               00000001
RB2                               00000002
RB3                               00000003
RB4                               00000004
RB5                               00000005
RB6                               00000006
RB7                               00000007
RBIE                              00000003
RBIF                              00000000
RC0                               00000000
RC1                               00000001
RC2                               00000002
RC3                               00000003
MPASM  5.50                           PIC.ASM   7-27-2023  10:27:58         PAGE 70


SYMBOL TABLE
  LABEL                             VALUE 

RC4                               00000004
RC5                               00000005
RC6                               00000006
RC7                               00000007
RC8_9                             00000006
RC9                               00000006
RCD8                              00000000
RCEN                              00000003
RCIE                              00000005
RCIF                              00000005
RCREG                             0000001A
RCSTA                             00000018
RD                                00000000
RD0                               00000000
RD1                               00000001
RD2                               00000002
RD3                               00000003
RD4                               00000004
RD5                               00000005
RD6                               00000006
RD7                               00000007
RE0                               00000000
RE1                               00000001
RE2                               00000002
READ_WRITE                        00000002
RP0                               00000005
RP1                               00000006
RS                                00000004
RSEN                              00000001
RX9                               00000006
RX9D                              00000000
R_NOT_W                           00000002
R_W                               00000002
RemHundreds                       00000069
RemOnes                           00000067
RemTenThousands                   0000006B
RemTens                           00000068
RemThousands                      0000006A
RemainderF                        00000065
RemainderF1                       00000066
RemainderH                        0000005B
RemainderL                        0000005A
S                                 00000003
SEN                               00000000
SHIFT_IT16                        00000519
SHIFT_IT161                       00000552
SHIFT_IT162                       00000588
SHIFT_IT163                       000005BE
SHIFT_IT164                       000005F4
SHIFT_IT16MOD1                    00000668
SHIFT_IT16MOD2                    0000069E
SHIFT_IT16MOD3                    000006D4
SHIFT_IT16MOD4                    0000070A
MPASM  5.50                           PIC.ASM   7-27-2023  10:27:58         PAGE 71


SYMBOL TABLE
  LABEL                             VALUE 

SMP                               00000007
SPBRG                             00000099
SPEN                              00000007
SREN                              00000005
SSPADD                            00000093
SSPBUF                            00000013
SSPCON                            00000014
SSPCON2                           00000091
SSPEN                             00000005
SSPIE                             00000003
SSPIF                             00000003
SSPM0                             00000000
SSPM1                             00000001
SSPM2                             00000002
SSPM3                             00000003
SSPOV                             00000006
SSPSTAT                           00000094
STATUS                            00000003
SYNC                              00000004
SecondNumH                        00000039
SecondNumL                        00000038
Select                            00000074
SingleDouble                      0000075F
SingleDoubleCounter               000001BB
SingleDoubleFlag                  0000006D
SingleDoubleOP                    00000372
Sum                               0000003A
SumTemp                           00000041
SymbolCounter                     00000025
T0CS                              00000005
T0IE                              00000005
T0IF                              00000002
T0SE                              00000004
T1CKPS0                           00000004
T1CKPS1                           00000005
T1CON                             00000010
T1INSYNC                          00000002
T1OSCEN                           00000003
T1SYNC                            00000002
T2CKPS0                           00000000
T2CKPS1                           00000001
T2CON                             00000012
TC1                               00000225
TEMPYY                            00000059
TMR0                              00000001
TMR0IE                            00000005
TMR0IF                            00000002
TMR1                              0000000E
TMR1CS                            00000001
TMR1H                             0000000F
TMR1IE                            00000000
TMR1IF                            00000000
TMR1L                             0000000E
MPASM  5.50                           PIC.ASM   7-27-2023  10:27:58         PAGE 72


SYMBOL TABLE
  LABEL                             VALUE 

TMR1ON                            00000000
TMR2                              00000011
TMR2IE                            00000001
TMR2IF                            00000001
TMR2ON                            00000002
TOUTPS0                           00000003
TOUTPS1                           00000004
TOUTPS2                           00000005
TOUTPS3                           00000006
TRISA                             00000085
TRISA0                            00000000
TRISA1                            00000001
TRISA2                            00000002
TRISA3                            00000003
TRISA4                            00000004
TRISA5                            00000005
TRISB                             00000086
TRISB0                            00000000
TRISB1                            00000001
TRISB2                            00000002
TRISB3                            00000003
TRISB4                            00000004
TRISB5                            00000005
TRISB6                            00000006
TRISB7                            00000007
TRISC                             00000087
TRISC0                            00000000
TRISC1                            00000001
TRISC2                            00000002
TRISC3                            00000003
TRISC4                            00000004
TRISC5                            00000005
TRISC6                            00000006
TRISC7                            00000007
TRISD                             00000088
TRISD0                            00000000
TRISD1                            00000001
TRISD2                            00000002
TRISD3                            00000003
TRISD4                            00000004
TRISD5                            00000005
TRISD6                            00000006
TRISD7                            00000007
TRISE                             00000089
TRISE0                            00000000
TRISE1                            00000001
TRISE2                            00000002
TRMT                              00000001
TX8_9                             00000006
TX9                               00000006
TX9D                              00000000
TXD8                              00000000
TXEN                              00000005
MPASM  5.50                           PIC.ASM   7-27-2023  10:27:58         PAGE 73


SYMBOL TABLE
  LABEL                             VALUE 

TXIE                              00000004
TXIF                              00000004
TXREG                             00000019
TXSTA                             00000098
TenNum                            0000005C
TensFirst                         0000002F
TensFirstNum                      00000034
TensSecond                        00000052
TensSecondNum                     00000050
TensSum                           0000003C
TensSumEquals9                    0000039F
TensSumGreaterThan9               000003A2
TensSumLessThan9                  000003A7
TensSumT                          00000046
ThousandsFirst                    0000002C
ThousandsFirstNum                 00000032
ThousandsSecond                   00000055
ThousandsSecondNum                0000004E
ThousandsSum                      0000003E
ThousandsSumEquals9               000003D5
ThousandsSumGreaterThan9          000003D8
ThousandsSumLessThan9             000003DD
ThousandsSumT                     00000048
Timer1                            00000070
TimerCon                          0000021D
TimerX                            00000071
UA                                00000001
Var                               00000072
W                                 00000000
WCOL                              00000007
WR                                00000001
WREN                              00000002
WRERR                             00000003
Wait5Seconds                      0000028B
Wait5Seconds1                     000002A0
Wait5Seconds10                    00000360
Wait5Seconds2                     000002B5
Wait5Seconds3                     000002CA
Wait5Seconds4                     000002DF
Wait5Seconds5                     000002F6
Wait5Seconds6                     00000309
Wait5Seconds7                     0000031E
Wait5Seconds8                     00000333
Wait5Seconds9                     00000348
Wait5SecondsYN                    00000766
Wait5SecondsYN1                   000007A0
Wait5SecondsYN2                   000007E6
YN2                               000007F7
YNCounter                         0000006E
Z                                 00000002
ZERO_TEST_SKIPPED                 00000514
ZERO_TEST_SKIPPED1                0000054C
ZERO_TEST_SKIPPED3                000005B8
MPASM  5.50                           PIC.ASM   7-27-2023  10:27:58         PAGE 74


SYMBOL TABLE
  LABEL                             VALUE 

ZERO_TEST_SKIPPEDMOD2             00000698
ZERO_TEST_SKIPPEDMOD3             000006CE
ZERO_TEST_SKIPPEDMOD4             00000704
ZeroNum                           0000005D
_BODEN_OFF                        00003FBF
_BODEN_ON                         00003FFF
_BOREN_OFF                        00003FBF
_BOREN_ON                         00003FFF
_CONFIG                           00002007
_CPD_OFF                          00003FFF
_CPD_ON                           00003EFF
_CP_ALL                           00001FFF
_CP_OFF                           00003FFF
_CP_ON                            00001FFF
_DEBUG_OFF                        00003FFF
_DEBUG_ON                         000037FF
_DEVID1                           00002006
_FOSC_EXTRC                       00003FFF
_FOSC_HS                          00003FFE
_FOSC_LP                          00003FFC
_FOSC_XT                          00003FFD
_HS_OSC                           00003FFE
_IDLOC0                           00002000
_IDLOC1                           00002001
_IDLOC2                           00002002
_IDLOC3                           00002003
_LP_OSC                           00003FFC
_LVP_OFF                          00003F7F
_LVP_ON                           00003FFF
_PWRTE_OFF                        00003FFF
_PWRTE_ON                         00003FF7
_RC_OSC                           00003FFF
_WDTE_OFF                         00003FFB
_WDTE_ON                          00003FFF
_WDT_OFF                          00003FFB
_WDT_ON                           00003FFF
_WRT_1FOURTH                      00003BFF
_WRT_256                          00003DFF
_WRT_HALF                         000039FF
_WRT_OFF                          00003FFF
_XT_OSC                           00003FFD
__16F877A                         00000001
__DEBUG                           1
checkYN                           000001B4
converting                        00000434
convertingAndDivisionDone         0000065D
counter1                          0000004A
counter2                          0000004B
counter3                          0000004C
counter_is_two                    00000109
counter_not_zero                  000000FB
division                          00000427
end_isr                           000001C0
MPASM  5.50                           PIC.ASM   7-27-2023  10:27:58         PAGE 75


SYMBOL TABLE
  LABEL                             VALUE 

equal_end                         0000005F
equal_end1                        0000007C
equal_end10                       000001AF
equal_end2                        0000009D
equal_end3                        000000C1
equal_end4                        000000EA
equal_end5                        00000113
equal_end6                        00000125
equal_end7                        00000142
equal_end8                        00000162
equal_end9                        00000186
inid                              000001F4
init                              00000005
loop1                             000001CB
loopX                             000001D0
more_than_six                     00000062
more_than_six1                    0000013C
not_equal                         00000050
not_equal1                        00000068
not_equal10                       00000189
not_equal2                        0000007F
not_equal3                        000000A0
not_equal4                        000000C4
not_equal5                        000000ED
not_equal6                        00000116
not_equal7                        00000128
not_equal8                        00000145
not_equal9                        00000165
numToASCII                        0000021B
onems                             000001C9
printDivision                     00000629
program_loop                      00000283
pulseE                            000001D4
reset_counter                     000001B9
savedSymbol                       00000026
send                              000001E1
start                             0000027F
symbol                            00000027
tenThousandsFirst                 0000002B
tenThousandsFirstNum              00000031
tenThousandsSecond                00000054
tenThousandsSecondNum             0000004D
tenThousandsSum                   0000003F
tenThousandsSumEquals9            000003F0
tenThousandsSumSumGreaterThan9    000003F3
tenThousandsSumSumLessThan9       000003F8
tenThousandsSumT                  00000049
xms                               000001CF

Errors   :     0
Warnings :   346 reported,     0 suppressed
Messages :   126 reported,     0 suppressed

